
/cva6/verif/sim/out_2026-03-30/directed_tests/test_template.o:     file format elf64-littleriscv


Disassembly of section .text.init:

0000000080000000 <_start>:
_start():
/cva6/verif/sim/../tests/custom/common/crt.S:18
#endif

  .section ".text.init"
  .globl _start
_start:
  li  x1, 0
    80000000:	4081                	li	ra,0
/cva6/verif/sim/../tests/custom/common/crt.S:19
  li  x2, 0
    80000002:	4101                	li	sp,0
/cva6/verif/sim/../tests/custom/common/crt.S:20
  li  x3, 0
    80000004:	4181                	li	gp,0
/cva6/verif/sim/../tests/custom/common/crt.S:21
  li  x4, 0
    80000006:	4201                	li	tp,0
/cva6/verif/sim/../tests/custom/common/crt.S:22
  li  x5, 0
    80000008:	4281                	li	t0,0
/cva6/verif/sim/../tests/custom/common/crt.S:23
  li  x6, 0
    8000000a:	4301                	li	t1,0
/cva6/verif/sim/../tests/custom/common/crt.S:24
  li  x7, 0
    8000000c:	4381                	li	t2,0
/cva6/verif/sim/../tests/custom/common/crt.S:25
  li  x8, 0
    8000000e:	4401                	li	s0,0
/cva6/verif/sim/../tests/custom/common/crt.S:26
  li  x9, 0
    80000010:	4481                	li	s1,0
/cva6/verif/sim/../tests/custom/common/crt.S:27
  li  x10,0
    80000012:	4501                	li	a0,0
/cva6/verif/sim/../tests/custom/common/crt.S:28
  li  x11,0
    80000014:	4581                	li	a1,0
/cva6/verif/sim/../tests/custom/common/crt.S:29
  li  x12,0
    80000016:	4601                	li	a2,0
/cva6/verif/sim/../tests/custom/common/crt.S:30
  li  x13,0
    80000018:	4681                	li	a3,0
/cva6/verif/sim/../tests/custom/common/crt.S:31
  li  x14,0
    8000001a:	4701                	li	a4,0
/cva6/verif/sim/../tests/custom/common/crt.S:32
  li  x15,0
    8000001c:	4781                	li	a5,0
/cva6/verif/sim/../tests/custom/common/crt.S:33
  li  x16,0
    8000001e:	4801                	li	a6,0
/cva6/verif/sim/../tests/custom/common/crt.S:34
  li  x17,0
    80000020:	4881                	li	a7,0
/cva6/verif/sim/../tests/custom/common/crt.S:35
  li  x18,0
    80000022:	4901                	li	s2,0
/cva6/verif/sim/../tests/custom/common/crt.S:36
  li  x19,0
    80000024:	4981                	li	s3,0
/cva6/verif/sim/../tests/custom/common/crt.S:37
  li  x20,0
    80000026:	4a01                	li	s4,0
/cva6/verif/sim/../tests/custom/common/crt.S:38
  li  x21,0
    80000028:	4a81                	li	s5,0
/cva6/verif/sim/../tests/custom/common/crt.S:39
  li  x22,0
    8000002a:	4b01                	li	s6,0
/cva6/verif/sim/../tests/custom/common/crt.S:40
  li  x23,0
    8000002c:	4b81                	li	s7,0
/cva6/verif/sim/../tests/custom/common/crt.S:41
  li  x24,0
    8000002e:	4c01                	li	s8,0
/cva6/verif/sim/../tests/custom/common/crt.S:42
  li  x25,0
    80000030:	4c81                	li	s9,0
/cva6/verif/sim/../tests/custom/common/crt.S:43
  li  x26,0
    80000032:	4d01                	li	s10,0
/cva6/verif/sim/../tests/custom/common/crt.S:44
  li  x27,0
    80000034:	4d81                	li	s11,0
/cva6/verif/sim/../tests/custom/common/crt.S:45
  li  x28,0
    80000036:	4e01                	li	t3,0
/cva6/verif/sim/../tests/custom/common/crt.S:46
  li  x29,0
    80000038:	4e81                	li	t4,0
/cva6/verif/sim/../tests/custom/common/crt.S:47
  li  x30,0
    8000003a:	4f01                	li	t5,0
/cva6/verif/sim/../tests/custom/common/crt.S:48
  li  x31,0
    8000003c:	4f81                	li	t6,0
/cva6/verif/sim/../tests/custom/common/crt.S:51

  # enable FPU and accelerator if present
  li t0, MSTATUS_FS | MSTATUS_XS
    8000003e:	62f9                	lui	t0,0x1e
/cva6/verif/sim/../tests/custom/common/crt.S:52
  csrs mstatus, t0
    80000040:	3002a073          	csrs	mstatus,t0
/cva6/verif/sim/../tests/custom/common/crt.S:55

  # make sure XLEN agrees with compilation choice
  li t0, 1
    80000044:	4285                	li	t0,1
/cva6/verif/sim/../tests/custom/common/crt.S:56
  slli t0, t0, 31
    80000046:	02fe                	slli	t0,t0,0x1f
/cva6/verif/sim/../tests/custom/common/crt.S:58
#if __riscv_xlen == 64
  bgez t0, 1f
    80000048:	0002d863          	bgez	t0,80000058 <_start+0x58>
/cva6/verif/sim/../tests/custom/common/crt.S:63
#else
  bltz t0, 1f
#endif
2:
  li a0, 1
    8000004c:	4505                	li	a0,1
/cva6/verif/sim/../tests/custom/common/crt.S:64
  sw a0, tohost, t0
    8000004e:	00001297          	auipc	t0,0x1
    80000052:	faa2a923          	sw	a0,-78(t0) # 80001000 <tohost>
/cva6/verif/sim/../tests/custom/common/crt.S:65
  j 2b
    80000056:	bfdd                	j	8000004c <_start+0x4c>
/cva6/verif/sim/../tests/custom/common/crt.S:70
1:

#ifdef __riscv_flen
  # initialize FPU if we have one
  la t0, 1f
    80000058:	00000297          	auipc	t0,0x0
    8000005c:	09028293          	addi	t0,t0,144 # 800000e8 <_start+0xe8>
/cva6/verif/sim/../tests/custom/common/crt.S:71
  csrw mtvec, t0
    80000060:	30529073          	csrw	mtvec,t0
/cva6/verif/sim/../tests/custom/common/crt.S:73

  fssr    x0
    80000064:	00301073          	fscsr	zero
/cva6/verif/sim/../tests/custom/common/crt.S:74
  fmv.s.x f0, x0
    80000068:	f0000053          	fmv.w.x	ft0,zero
/cva6/verif/sim/../tests/custom/common/crt.S:75
  fmv.s.x f1, x0
    8000006c:	f00000d3          	fmv.w.x	ft1,zero
/cva6/verif/sim/../tests/custom/common/crt.S:76
  fmv.s.x f2, x0
    80000070:	f0000153          	fmv.w.x	ft2,zero
/cva6/verif/sim/../tests/custom/common/crt.S:77
  fmv.s.x f3, x0
    80000074:	f00001d3          	fmv.w.x	ft3,zero
/cva6/verif/sim/../tests/custom/common/crt.S:78
  fmv.s.x f4, x0
    80000078:	f0000253          	fmv.w.x	ft4,zero
/cva6/verif/sim/../tests/custom/common/crt.S:79
  fmv.s.x f5, x0
    8000007c:	f00002d3          	fmv.w.x	ft5,zero
/cva6/verif/sim/../tests/custom/common/crt.S:80
  fmv.s.x f6, x0
    80000080:	f0000353          	fmv.w.x	ft6,zero
/cva6/verif/sim/../tests/custom/common/crt.S:81
  fmv.s.x f7, x0
    80000084:	f00003d3          	fmv.w.x	ft7,zero
/cva6/verif/sim/../tests/custom/common/crt.S:82
  fmv.s.x f8, x0
    80000088:	f0000453          	fmv.w.x	fs0,zero
/cva6/verif/sim/../tests/custom/common/crt.S:83
  fmv.s.x f9, x0
    8000008c:	f00004d3          	fmv.w.x	fs1,zero
/cva6/verif/sim/../tests/custom/common/crt.S:84
  fmv.s.x f10,x0
    80000090:	f0000553          	fmv.w.x	fa0,zero
/cva6/verif/sim/../tests/custom/common/crt.S:85
  fmv.s.x f11,x0
    80000094:	f00005d3          	fmv.w.x	fa1,zero
/cva6/verif/sim/../tests/custom/common/crt.S:86
  fmv.s.x f12,x0
    80000098:	f0000653          	fmv.w.x	fa2,zero
/cva6/verif/sim/../tests/custom/common/crt.S:87
  fmv.s.x f13,x0
    8000009c:	f00006d3          	fmv.w.x	fa3,zero
/cva6/verif/sim/../tests/custom/common/crt.S:88
  fmv.s.x f14,x0
    800000a0:	f0000753          	fmv.w.x	fa4,zero
/cva6/verif/sim/../tests/custom/common/crt.S:89
  fmv.s.x f15,x0
    800000a4:	f00007d3          	fmv.w.x	fa5,zero
/cva6/verif/sim/../tests/custom/common/crt.S:90
  fmv.s.x f16,x0
    800000a8:	f0000853          	fmv.w.x	fa6,zero
/cva6/verif/sim/../tests/custom/common/crt.S:91
  fmv.s.x f17,x0
    800000ac:	f00008d3          	fmv.w.x	fa7,zero
/cva6/verif/sim/../tests/custom/common/crt.S:92
  fmv.s.x f18,x0
    800000b0:	f0000953          	fmv.w.x	fs2,zero
/cva6/verif/sim/../tests/custom/common/crt.S:93
  fmv.s.x f19,x0
    800000b4:	f00009d3          	fmv.w.x	fs3,zero
/cva6/verif/sim/../tests/custom/common/crt.S:94
  fmv.s.x f20,x0
    800000b8:	f0000a53          	fmv.w.x	fs4,zero
/cva6/verif/sim/../tests/custom/common/crt.S:95
  fmv.s.x f21,x0
    800000bc:	f0000ad3          	fmv.w.x	fs5,zero
/cva6/verif/sim/../tests/custom/common/crt.S:96
  fmv.s.x f22,x0
    800000c0:	f0000b53          	fmv.w.x	fs6,zero
/cva6/verif/sim/../tests/custom/common/crt.S:97
  fmv.s.x f23,x0
    800000c4:	f0000bd3          	fmv.w.x	fs7,zero
/cva6/verif/sim/../tests/custom/common/crt.S:98
  fmv.s.x f24,x0
    800000c8:	f0000c53          	fmv.w.x	fs8,zero
/cva6/verif/sim/../tests/custom/common/crt.S:99
  fmv.s.x f25,x0
    800000cc:	f0000cd3          	fmv.w.x	fs9,zero
/cva6/verif/sim/../tests/custom/common/crt.S:100
  fmv.s.x f26,x0
    800000d0:	f0000d53          	fmv.w.x	fs10,zero
/cva6/verif/sim/../tests/custom/common/crt.S:101
  fmv.s.x f27,x0
    800000d4:	f0000dd3          	fmv.w.x	fs11,zero
/cva6/verif/sim/../tests/custom/common/crt.S:102
  fmv.s.x f28,x0
    800000d8:	f0000e53          	fmv.w.x	ft8,zero
/cva6/verif/sim/../tests/custom/common/crt.S:103
  fmv.s.x f29,x0
    800000dc:	f0000ed3          	fmv.w.x	ft9,zero
/cva6/verif/sim/../tests/custom/common/crt.S:104
  fmv.s.x f30,x0
    800000e0:	f0000f53          	fmv.w.x	ft10,zero
/cva6/verif/sim/../tests/custom/common/crt.S:105
  fmv.s.x f31,x0
    800000e4:	f0000fd3          	fmv.w.x	ft11,zero
/cva6/verif/sim/../tests/custom/common/crt.S:110
1:
#endif

  # initialize trap vector
  la t0, trap_entry
    800000e8:	00000297          	auipc	t0,0x0
    800000ec:	03828293          	addi	t0,t0,56 # 80000120 <trap_entry>
/cva6/verif/sim/../tests/custom/common/crt.S:111
  csrw mtvec, t0
    800000f0:	30529073          	csrw	mtvec,t0
/cva6/verif/sim/../tests/custom/common/crt.S:116

  # initialize global pointer
.option push
.option norelax
  la gp, __global_pointer$
    800000f4:	00006197          	auipc	gp,0x6
    800000f8:	70c18193          	addi	gp,gp,1804 # 80006800 <__global_pointer$>
/cva6/verif/sim/../tests/custom/common/crt.S:119
.option pop

  la  tp, _end + 63
    800000fc:	87f18213          	addi	tp,gp,-1921 # 8000607f <_end+0x3f>
/cva6/verif/sim/../tests/custom/common/crt.S:120
  and tp, tp, -64
    80000100:	fc027213          	andi	tp,tp,-64
/cva6/verif/sim/../tests/custom/common/crt.S:123

  # get core id
  csrr a0, mhartid
    80000104:	f1402573          	csrr	a0,mhartid
/cva6/verif/sim/../tests/custom/common/crt.S:125
  # for now, assume only 1 core
  li a1, 1
    80000108:	4585                	li	a1,1
/cva6/verif/sim/../tests/custom/common/crt.S:126
1:bgeu a0, a1, 1b
    8000010a:	00b57063          	bgeu	a0,a1,8000010a <_start+0x10a>
/cva6/verif/sim/../tests/custom/common/crt.S:130

  # give each core 128KB of stack + TLS
#define STKSHIFT 17
  add sp, a0, 1
    8000010e:	00150113          	addi	sp,a0,1
/cva6/verif/sim/../tests/custom/common/crt.S:131
  sll sp, sp, STKSHIFT
    80000112:	0146                	slli	sp,sp,0x11
/cva6/verif/sim/../tests/custom/common/crt.S:132
  add sp, sp, tp
    80000114:	9112                	add	sp,sp,tp
/cva6/verif/sim/../tests/custom/common/crt.S:133
  sll a2, a0, STKSHIFT
    80000116:	01151613          	slli	a2,a0,0x11
/cva6/verif/sim/../tests/custom/common/crt.S:134
  add tp, tp, a2
    8000011a:	9232                	add	tp,tp,a2
/cva6/verif/sim/../tests/custom/common/crt.S:136

  j _init
    8000011c:	5d90306f          	j	80003ef4 <_init>

0000000080000120 <trap_entry>:
trap_entry():
/cva6/verif/sim/../tests/custom/common/crt.S:141
  .size    _start, . - _start

  .align 2
trap_entry:
  addi sp, sp, -272
    80000120:	716d                	addi	sp,sp,-272
/cva6/verif/sim/../tests/custom/common/crt.S:143

  SREG x1, 1*REGBYTES(sp)
    80000122:	e406                	sd	ra,8(sp)
/cva6/verif/sim/../tests/custom/common/crt.S:144
  SREG x2, 2*REGBYTES(sp)
    80000124:	e80a                	sd	sp,16(sp)
/cva6/verif/sim/../tests/custom/common/crt.S:145
  SREG x3, 3*REGBYTES(sp)
    80000126:	ec0e                	sd	gp,24(sp)
/cva6/verif/sim/../tests/custom/common/crt.S:146
  SREG x4, 4*REGBYTES(sp)
    80000128:	f012                	sd	tp,32(sp)
/cva6/verif/sim/../tests/custom/common/crt.S:147
  SREG x5, 5*REGBYTES(sp)
    8000012a:	f416                	sd	t0,40(sp)
/cva6/verif/sim/../tests/custom/common/crt.S:148
  SREG x6, 6*REGBYTES(sp)
    8000012c:	f81a                	sd	t1,48(sp)
/cva6/verif/sim/../tests/custom/common/crt.S:149
  SREG x7, 7*REGBYTES(sp)
    8000012e:	fc1e                	sd	t2,56(sp)
/cva6/verif/sim/../tests/custom/common/crt.S:150
  SREG x8, 8*REGBYTES(sp)
    80000130:	e0a2                	sd	s0,64(sp)
/cva6/verif/sim/../tests/custom/common/crt.S:151
  SREG x9, 9*REGBYTES(sp)
    80000132:	e4a6                	sd	s1,72(sp)
/cva6/verif/sim/../tests/custom/common/crt.S:152
  SREG x10, 10*REGBYTES(sp)
    80000134:	e8aa                	sd	a0,80(sp)
/cva6/verif/sim/../tests/custom/common/crt.S:153
  SREG x11, 11*REGBYTES(sp)
    80000136:	ecae                	sd	a1,88(sp)
/cva6/verif/sim/../tests/custom/common/crt.S:154
  SREG x12, 12*REGBYTES(sp)
    80000138:	f0b2                	sd	a2,96(sp)
/cva6/verif/sim/../tests/custom/common/crt.S:155
  SREG x13, 13*REGBYTES(sp)
    8000013a:	f4b6                	sd	a3,104(sp)
/cva6/verif/sim/../tests/custom/common/crt.S:156
  SREG x14, 14*REGBYTES(sp)
    8000013c:	f8ba                	sd	a4,112(sp)
/cva6/verif/sim/../tests/custom/common/crt.S:157
  SREG x15, 15*REGBYTES(sp)
    8000013e:	fcbe                	sd	a5,120(sp)
/cva6/verif/sim/../tests/custom/common/crt.S:158
  SREG x16, 16*REGBYTES(sp)
    80000140:	e142                	sd	a6,128(sp)
/cva6/verif/sim/../tests/custom/common/crt.S:159
  SREG x17, 17*REGBYTES(sp)
    80000142:	e546                	sd	a7,136(sp)
/cva6/verif/sim/../tests/custom/common/crt.S:160
  SREG x18, 18*REGBYTES(sp)
    80000144:	e94a                	sd	s2,144(sp)
/cva6/verif/sim/../tests/custom/common/crt.S:161
  SREG x19, 19*REGBYTES(sp)
    80000146:	ed4e                	sd	s3,152(sp)
/cva6/verif/sim/../tests/custom/common/crt.S:162
  SREG x20, 20*REGBYTES(sp)
    80000148:	f152                	sd	s4,160(sp)
/cva6/verif/sim/../tests/custom/common/crt.S:163
  SREG x21, 21*REGBYTES(sp)
    8000014a:	f556                	sd	s5,168(sp)
/cva6/verif/sim/../tests/custom/common/crt.S:164
  SREG x22, 22*REGBYTES(sp)
    8000014c:	f95a                	sd	s6,176(sp)
/cva6/verif/sim/../tests/custom/common/crt.S:165
  SREG x23, 23*REGBYTES(sp)
    8000014e:	fd5e                	sd	s7,184(sp)
/cva6/verif/sim/../tests/custom/common/crt.S:166
  SREG x24, 24*REGBYTES(sp)
    80000150:	e1e2                	sd	s8,192(sp)
/cva6/verif/sim/../tests/custom/common/crt.S:167
  SREG x25, 25*REGBYTES(sp)
    80000152:	e5e6                	sd	s9,200(sp)
/cva6/verif/sim/../tests/custom/common/crt.S:168
  SREG x26, 26*REGBYTES(sp)
    80000154:	e9ea                	sd	s10,208(sp)
/cva6/verif/sim/../tests/custom/common/crt.S:169
  SREG x27, 27*REGBYTES(sp)
    80000156:	edee                	sd	s11,216(sp)
/cva6/verif/sim/../tests/custom/common/crt.S:170
  SREG x28, 28*REGBYTES(sp)
    80000158:	f1f2                	sd	t3,224(sp)
/cva6/verif/sim/../tests/custom/common/crt.S:171
  SREG x29, 29*REGBYTES(sp)
    8000015a:	f5f6                	sd	t4,232(sp)
/cva6/verif/sim/../tests/custom/common/crt.S:172
  SREG x30, 30*REGBYTES(sp)
    8000015c:	f9fa                	sd	t5,240(sp)
/cva6/verif/sim/../tests/custom/common/crt.S:173
  SREG x31, 31*REGBYTES(sp)
    8000015e:	fdfe                	sd	t6,248(sp)
/cva6/verif/sim/../tests/custom/common/crt.S:175

  csrr a0, mcause
    80000160:	34202573          	csrr	a0,mcause
/cva6/verif/sim/../tests/custom/common/crt.S:176
  csrr a1, mepc
    80000164:	341025f3          	csrr	a1,mepc
/cva6/verif/sim/../tests/custom/common/crt.S:177
  mv a2, sp
    80000168:	860a                	mv	a2,sp
/cva6/verif/sim/../tests/custom/common/crt.S:178
  jal handle_trap
    8000016a:	459030ef          	jal	ra,80003dc2 <handle_trap>
/cva6/verif/sim/../tests/custom/common/crt.S:179
  csrw mepc, a0
    8000016e:	34151073          	csrw	mepc,a0
/cva6/verif/sim/../tests/custom/common/crt.S:182

  # Remain in M-mode after eret
  li t0, MSTATUS_MPP
    80000172:	6289                	lui	t0,0x2
    80000174:	8002829b          	addiw	t0,t0,-2048
/cva6/verif/sim/../tests/custom/common/crt.S:183
  csrs mstatus, t0
    80000178:	3002a073          	csrs	mstatus,t0
/cva6/verif/sim/../tests/custom/common/crt.S:185

  LREG x1, 1*REGBYTES(sp)
    8000017c:	60a2                	ld	ra,8(sp)
/cva6/verif/sim/../tests/custom/common/crt.S:186
  LREG x2, 2*REGBYTES(sp)
    8000017e:	6142                	ld	sp,16(sp)
/cva6/verif/sim/../tests/custom/common/crt.S:187
  LREG x3, 3*REGBYTES(sp)
    80000180:	61e2                	ld	gp,24(sp)
/cva6/verif/sim/../tests/custom/common/crt.S:188
  LREG x4, 4*REGBYTES(sp)
    80000182:	7202                	ld	tp,32(sp)
/cva6/verif/sim/../tests/custom/common/crt.S:189
  LREG x5, 5*REGBYTES(sp)
    80000184:	72a2                	ld	t0,40(sp)
/cva6/verif/sim/../tests/custom/common/crt.S:190
  LREG x6, 6*REGBYTES(sp)
    80000186:	7342                	ld	t1,48(sp)
/cva6/verif/sim/../tests/custom/common/crt.S:191
  LREG x7, 7*REGBYTES(sp)
    80000188:	73e2                	ld	t2,56(sp)
/cva6/verif/sim/../tests/custom/common/crt.S:192
  LREG x8, 8*REGBYTES(sp)
    8000018a:	6406                	ld	s0,64(sp)
/cva6/verif/sim/../tests/custom/common/crt.S:193
  LREG x9, 9*REGBYTES(sp)
    8000018c:	64a6                	ld	s1,72(sp)
/cva6/verif/sim/../tests/custom/common/crt.S:194
  LREG x10, 10*REGBYTES(sp)
    8000018e:	6546                	ld	a0,80(sp)
/cva6/verif/sim/../tests/custom/common/crt.S:195
  LREG x11, 11*REGBYTES(sp)
    80000190:	65e6                	ld	a1,88(sp)
/cva6/verif/sim/../tests/custom/common/crt.S:196
  LREG x12, 12*REGBYTES(sp)
    80000192:	7606                	ld	a2,96(sp)
/cva6/verif/sim/../tests/custom/common/crt.S:197
  LREG x13, 13*REGBYTES(sp)
    80000194:	76a6                	ld	a3,104(sp)
/cva6/verif/sim/../tests/custom/common/crt.S:198
  LREG x14, 14*REGBYTES(sp)
    80000196:	7746                	ld	a4,112(sp)
/cva6/verif/sim/../tests/custom/common/crt.S:199
  LREG x15, 15*REGBYTES(sp)
    80000198:	77e6                	ld	a5,120(sp)
/cva6/verif/sim/../tests/custom/common/crt.S:200
  LREG x16, 16*REGBYTES(sp)
    8000019a:	680a                	ld	a6,128(sp)
/cva6/verif/sim/../tests/custom/common/crt.S:201
  LREG x17, 17*REGBYTES(sp)
    8000019c:	68aa                	ld	a7,136(sp)
/cva6/verif/sim/../tests/custom/common/crt.S:202
  LREG x18, 18*REGBYTES(sp)
    8000019e:	694a                	ld	s2,144(sp)
/cva6/verif/sim/../tests/custom/common/crt.S:203
  LREG x19, 19*REGBYTES(sp)
    800001a0:	69ea                	ld	s3,152(sp)
/cva6/verif/sim/../tests/custom/common/crt.S:204
  LREG x20, 20*REGBYTES(sp)
    800001a2:	7a0a                	ld	s4,160(sp)
/cva6/verif/sim/../tests/custom/common/crt.S:205
  LREG x21, 21*REGBYTES(sp)
    800001a4:	7aaa                	ld	s5,168(sp)
/cva6/verif/sim/../tests/custom/common/crt.S:206
  LREG x22, 22*REGBYTES(sp)
    800001a6:	7b4a                	ld	s6,176(sp)
/cva6/verif/sim/../tests/custom/common/crt.S:207
  LREG x23, 23*REGBYTES(sp)
    800001a8:	7bea                	ld	s7,184(sp)
/cva6/verif/sim/../tests/custom/common/crt.S:208
  LREG x24, 24*REGBYTES(sp)
    800001aa:	6c0e                	ld	s8,192(sp)
/cva6/verif/sim/../tests/custom/common/crt.S:209
  LREG x25, 25*REGBYTES(sp)
    800001ac:	6cae                	ld	s9,200(sp)
/cva6/verif/sim/../tests/custom/common/crt.S:210
  LREG x26, 26*REGBYTES(sp)
    800001ae:	6d4e                	ld	s10,208(sp)
/cva6/verif/sim/../tests/custom/common/crt.S:211
  LREG x27, 27*REGBYTES(sp)
    800001b0:	6dee                	ld	s11,216(sp)
/cva6/verif/sim/../tests/custom/common/crt.S:212
  LREG x28, 28*REGBYTES(sp)
    800001b2:	7e0e                	ld	t3,224(sp)
/cva6/verif/sim/../tests/custom/common/crt.S:213
  LREG x29, 29*REGBYTES(sp)
    800001b4:	7eae                	ld	t4,232(sp)
/cva6/verif/sim/../tests/custom/common/crt.S:214
  LREG x30, 30*REGBYTES(sp)
    800001b6:	7f4e                	ld	t5,240(sp)
/cva6/verif/sim/../tests/custom/common/crt.S:215
  LREG x31, 31*REGBYTES(sp)
    800001b8:	7fee                	ld	t6,248(sp)
/cva6/verif/sim/../tests/custom/common/crt.S:217

  addi sp, sp, 272
    800001ba:	6151                	addi	sp,sp,272
/cva6/verif/sim/../tests/custom/common/crt.S:218
  mret
    800001bc:	30200073          	mret
/cva6/verif/sim/../tests/custom/common/crt.S:224

  // Default definition of handle_trap: Exit with code 0x7ffffff0.
  .weak   handle_trap
  .type	handle_trap, @function
handle_trap:
        li  a0, -32
    800001c0:	5501                	li	a0,-32
/cva6/verif/sim/../tests/custom/common/crt.S:225
	j   _exit
    800001c2:	a029                	j	800001cc <_exit>
/cva6/verif/sim/../tests/custom/common/crt.S:233
  // Default, overrideable definition of _init:
  // Call 'main' and jump to '_exit' which never returns.
  .weak   _init
  .type   _init, @function
_init:
  jal     main
    800001c4:	63d020ef          	jal	ra,80003000 <main>
/cva6/verif/sim/../tests/custom/common/crt.S:234
  j       _exit
    800001c8:	a011                	j	800001cc <_exit>
/cva6/verif/sim/../tests/custom/common/crt.S:242
  // Default, overrideable definition of 'exit':
  // Jump to '_exit' low-level termination function.
  .weak   exit
  .type   exit, @function
exit:
  j       _exit
    800001ca:	a009                	j	800001cc <_exit>

00000000800001cc <_exit>:
_exit():
/cva6/verif/sim/../tests/custom/common/crt.S:248
  .size   exit, . - exit

  // Minimal low-level exit function.
  .global  _exit
_exit:
  sll  a0, a0, 1      # Set up exit code: shift a0 left by 1
    800001cc:	0506                	slli	a0,a0,0x1
/cva6/verif/sim/../tests/custom/common/crt.S:249
  add  a0, a0, 1      # and set bit 0.
    800001ce:	0505                	addi	a0,a0,1
/cva6/verif/sim/../tests/custom/common/crt.S:250
  sw   a0, tohost, t5 # Store bits [31:0] of a0 into variable tohost
    800001d0:	00001f17          	auipc	t5,0x1
    800001d4:	e2af2823          	sw	a0,-464(t5) # 80001000 <tohost>
/cva6/verif/sim/../tests/custom/common/crt.S:251
  nop                 # Leave one cycle of slack before entering endless loop
    800001d8:	0001                	nop
/cva6/verif/sim/../tests/custom/common/crt.S:253
1:
  j        1b;        # Wait indefinitely (until the env terminates the simulation)
    800001da:	a001                	j	800001da <_exit+0xe>
	...

Disassembly of section .text:

0000000080003000 <main>:
$xrv64i2p1_m2p0_a2p1_f2p2_d2p2_c2p0_zicsr2p0_zifencei2p0_zmmul1p0_zba1p0_zbb1p0_zbc1p0_zbkb1p0_zbkx1p0_zbs1p0_zknd1p0_zkne1p0_zknh1p0():
/cva6/verif/sim/../tests/custom/templates/test_template.S:30
main:
  # ---------------------------------------------------------
  # CONFIGURACIÓN DEL PMU (PERFORMANCE MONITOR UNIT)
  # --------------------------------------------------------- 
  # Pausar todos los contadores
  addi    sp, sp, -80
    80003000:	715d                	addi	sp,sp,-80
/cva6/verif/sim/../tests/custom/templates/test_template.S:31
  li      t0, -1
    80003002:	52fd                	li	t0,-1
/cva6/verif/sim/../tests/custom/templates/test_template.S:32
  csrw    CSR_MCOUNTINHIBIT, t0
    80003004:	32029073          	csrw	mcountinhibit,t0
/cva6/verif/sim/../tests/custom/templates/test_template.S:35

  # Configurar Eventos
  li      t0, 1
    80003008:	4285                	li	t0,1
/cva6/verif/sim/../tests/custom/templates/test_template.S:36
  csrw    CSR_MHPMEVENT3, t0    # L1 I-Cache Miss
    8000300a:	32329073          	csrw	mhpmevent3,t0
/cva6/verif/sim/../tests/custom/templates/test_template.S:37
  li      t0, 2
    8000300e:	4289                	li	t0,2
/cva6/verif/sim/../tests/custom/templates/test_template.S:38
  csrw    CSR_MHPMEVENT4, t0    # L1 D-Cache Miss
    80003010:	32429073          	csrw	mhpmevent4,t0
/cva6/verif/sim/../tests/custom/templates/test_template.S:39
  li      t0, 16
    80003014:	42c1                	li	t0,16
/cva6/verif/sim/../tests/custom/templates/test_template.S:40
  csrw    CSR_MHPMEVENT5, t0    # L1 I-Cache Access
    80003016:	32529073          	csrw	mhpmevent5,t0
/cva6/verif/sim/../tests/custom/templates/test_template.S:41
  li      t0, 22
    8000301a:	42d9                	li	t0,22
/cva6/verif/sim/../tests/custom/templates/test_template.S:42
  csrw    CSR_MHPMEVENT6, t0    # Pipeline Stall
    8000301c:	32629073          	csrw	mhpmevent6,t0
/cva6/verif/sim/../tests/custom/templates/test_template.S:43
  li      t0, 9
    80003020:	42a5                	li	t0,9
/cva6/verif/sim/../tests/custom/templates/test_template.S:44
  csrw    CSR_MHPMEVENT7, t0    # Branch Instr
    80003022:	32729073          	csrw	mhpmevent7,t0
/cva6/verif/sim/../tests/custom/templates/test_template.S:45
  li      t0, 10
    80003026:	42a9                	li	t0,10
/cva6/verif/sim/../tests/custom/templates/test_template.S:46
  csrw    CSR_MHPMEVENT8, t0    # Branch Mispredict
    80003028:	32829073          	csrw	mhpmevent8,t0
/cva6/verif/sim/../tests/custom/templates/test_template.S:49

  # Resetear contadores a 0
  csrw    CSR_MHPMCOUNTER3, zero
    8000302c:	b0301073          	csrw	mhpmcounter3,zero
/cva6/verif/sim/../tests/custom/templates/test_template.S:50
  csrw    CSR_MHPMCOUNTER4, zero
    80003030:	b0401073          	csrw	mhpmcounter4,zero
/cva6/verif/sim/../tests/custom/templates/test_template.S:51
  csrw    CSR_MHPMCOUNTER5, zero
    80003034:	b0501073          	csrw	mhpmcounter5,zero
/cva6/verif/sim/../tests/custom/templates/test_template.S:52
  csrw    CSR_MHPMCOUNTER6, zero
    80003038:	b0601073          	csrw	mhpmcounter6,zero
/cva6/verif/sim/../tests/custom/templates/test_template.S:53
  csrw    CSR_MHPMCOUNTER7, zero
    8000303c:	b0701073          	csrw	mhpmcounter7,zero
/cva6/verif/sim/../tests/custom/templates/test_template.S:54
  csrw    CSR_MHPMCOUNTER8, zero
    80003040:	b0801073          	csrw	mhpmcounter8,zero
/cva6/verif/sim/../tests/custom/templates/test_template.S:57

  # Habilitar acceso a contadores
  li      t0, -1
    80003044:	52fd                	li	t0,-1
/cva6/verif/sim/../tests/custom/templates/test_template.S:58
  csrw    mcounteren, t0
    80003046:	30629073          	csrw	mcounteren,t0
/cva6/verif/sim/../tests/custom/templates/test_template.S:59
  csrw    CSR_MCOUNTINHIBIT, zero
    8000304a:	32001073          	csrw	mcountinhibit,zero
/cva6/verif/sim/../tests/custom/templates/test_template.S:64

  # ---------------------------------------------------------
  # SNAPSHOT INICIAL
  # ---------------------------------------------------------
  csrr    t0, CSR_MCYCLE
    8000304e:	b00022f3          	csrr	t0,mcycle
/cva6/verif/sim/../tests/custom/templates/test_template.S:65
  sd      t0, 0(sp)       # Guardar Cycle Start
    80003052:	e016                	sd	t0,0(sp)
/cva6/verif/sim/../tests/custom/templates/test_template.S:66
  csrr    t0, CSR_MINSTRET
    80003054:	b02022f3          	csrr	t0,minstret
/cva6/verif/sim/../tests/custom/templates/test_template.S:67
  sd      t0, 8(sp)       # Guardar Instret Start
    80003058:	e416                	sd	t0,8(sp)
/cva6/verif/sim/../tests/custom/templates/test_template.S:68
  csrr    t0, CSR_MHPMCOUNTER3
    8000305a:	b03022f3          	csrr	t0,mhpmcounter3
/cva6/verif/sim/../tests/custom/templates/test_template.S:69
  sd      t0, 16(sp)      # Guardar HPM3 Start
    8000305e:	e816                	sd	t0,16(sp)
/cva6/verif/sim/../tests/custom/templates/test_template.S:70
  csrr    t0, CSR_MHPMCOUNTER4
    80003060:	b04022f3          	csrr	t0,mhpmcounter4
/cva6/verif/sim/../tests/custom/templates/test_template.S:71
  sd      t0, 24(sp)      # Guardar HPM4 Start
    80003064:	ec16                	sd	t0,24(sp)
/cva6/verif/sim/../tests/custom/templates/test_template.S:72
  csrr    t0, CSR_MHPMCOUNTER5
    80003066:	b05022f3          	csrr	t0,mhpmcounter5
/cva6/verif/sim/../tests/custom/templates/test_template.S:73
  sd      t0, 32(sp)      # Guardar HPM5 Start
    8000306a:	f016                	sd	t0,32(sp)
/cva6/verif/sim/../tests/custom/templates/test_template.S:74
  csrr    t0, CSR_MHPMCOUNTER6
    8000306c:	b06022f3          	csrr	t0,mhpmcounter6
/cva6/verif/sim/../tests/custom/templates/test_template.S:75
  sd      t0, 40(sp)      # Guardar HPM6 Start
    80003070:	f416                	sd	t0,40(sp)
/cva6/verif/sim/../tests/custom/templates/test_template.S:76
  csrr    t0, CSR_MHPMCOUNTER7
    80003072:	b07022f3          	csrr	t0,mhpmcounter7
/cva6/verif/sim/../tests/custom/templates/test_template.S:77
  sd      t0, 48(sp)      # Guardar HPM7 Start
    80003076:	f816                	sd	t0,48(sp)
/cva6/verif/sim/../tests/custom/templates/test_template.S:78
  csrr    t0, CSR_MHPMCOUNTER8
    80003078:	b08022f3          	csrr	t0,mhpmcounter8
/cva6/verif/sim/../tests/custom/templates/test_template.S:79
  sd      t0, 56(sp)      # Guardar HPM8 Start
    8000307c:	fc16                	sd	t0,56(sp)
/cva6/verif/sim/../tests/custom/templates/test_template.S:84

  # ---------------------------------------------------------
  # PROGRAMA
  # ---------------------------------------------------------
  li t1, 0
    8000307e:	4301                	li	t1,0
/cva6/verif/sim/../tests/custom/templates/test_template.S:85
  li t2, 0
    80003080:	4381                	li	t2,0
/cva6/verif/sim/../tests/custom/templates/test_template.S:86
  li t3, 0
    80003082:	4e01                	li	t3,0
/cva6/verif/sim/../tests/custom/templates/test_template.S:87
  li t4, 0
    80003084:	4e81                	li	t4,0
/cva6/verif/sim/../tests/custom/templates/test_template.S:88
  li t5, 0
    80003086:	4f01                	li	t5,0
/cva6/verif/sim/../tests/custom/templates/test_template.S:89
  addi t1, t1, 1
    80003088:	0305                	addi	t1,t1,1
/cva6/verif/sim/../tests/custom/templates/test_template.S:90
  addi t2, t2, 1
    8000308a:	0385                	addi	t2,t2,1
/cva6/verif/sim/../tests/custom/templates/test_template.S:91
  addi t3, t3, 1
    8000308c:	0e05                	addi	t3,t3,1
/cva6/verif/sim/../tests/custom/templates/test_template.S:92
  addi t4, t4, 1
    8000308e:	0e85                	addi	t4,t4,1
/cva6/verif/sim/../tests/custom/templates/test_template.S:93
  addi t5, t5, 1
    80003090:	0f05                	addi	t5,t5,1
/cva6/verif/sim/../tests/custom/templates/test_template.S:94
  addi t1, t1, 1
    80003092:	0305                	addi	t1,t1,1
/cva6/verif/sim/../tests/custom/templates/test_template.S:95
  addi t2, t2, 1
    80003094:	0385                	addi	t2,t2,1
/cva6/verif/sim/../tests/custom/templates/test_template.S:96
  addi t3, t3, 1
    80003096:	0e05                	addi	t3,t3,1
/cva6/verif/sim/../tests/custom/templates/test_template.S:97
  addi t4, t4, 1
    80003098:	0e85                	addi	t4,t4,1
/cva6/verif/sim/../tests/custom/templates/test_template.S:98
  addi t5, t5, 1
    8000309a:	0f05                	addi	t5,t5,1
/cva6/verif/sim/../tests/custom/templates/test_template.S:99
  addi t1, t1, 1
    8000309c:	0305                	addi	t1,t1,1
/cva6/verif/sim/../tests/custom/templates/test_template.S:100
  addi t2, t2, 1
    8000309e:	0385                	addi	t2,t2,1
/cva6/verif/sim/../tests/custom/templates/test_template.S:101
  addi t3, t3, 1
    800030a0:	0e05                	addi	t3,t3,1
/cva6/verif/sim/../tests/custom/templates/test_template.S:102
  addi t4, t4, 1
    800030a2:	0e85                	addi	t4,t4,1
/cva6/verif/sim/../tests/custom/templates/test_template.S:103
  addi t5, t5, 1
    800030a4:	0f05                	addi	t5,t5,1
/cva6/verif/sim/../tests/custom/templates/test_template.S:104
  addi t1, t1, 1
    800030a6:	0305                	addi	t1,t1,1
/cva6/verif/sim/../tests/custom/templates/test_template.S:105
  addi t2, t2, 1
    800030a8:	0385                	addi	t2,t2,1
/cva6/verif/sim/../tests/custom/templates/test_template.S:106
  addi t3, t3, 1
    800030aa:	0e05                	addi	t3,t3,1
/cva6/verif/sim/../tests/custom/templates/test_template.S:107
  addi t4, t4, 1
    800030ac:	0e85                	addi	t4,t4,1
/cva6/verif/sim/../tests/custom/templates/test_template.S:108
  addi t5, t5, 1
    800030ae:	0f05                	addi	t5,t5,1
/cva6/verif/sim/../tests/custom/templates/test_template.S:109
  addi t1, t1, 1
    800030b0:	0305                	addi	t1,t1,1
/cva6/verif/sim/../tests/custom/templates/test_template.S:110
  addi t2, t2, 1
    800030b2:	0385                	addi	t2,t2,1
/cva6/verif/sim/../tests/custom/templates/test_template.S:111
  addi t3, t3, 1
    800030b4:	0e05                	addi	t3,t3,1
/cva6/verif/sim/../tests/custom/templates/test_template.S:112
  addi t4, t4, 1
    800030b6:	0e85                	addi	t4,t4,1
/cva6/verif/sim/../tests/custom/templates/test_template.S:113
  addi t5, t5, 1
    800030b8:	0f05                	addi	t5,t5,1
/cva6/verif/sim/../tests/custom/templates/test_template.S:114
  addi t1, t1, 1
    800030ba:	0305                	addi	t1,t1,1
/cva6/verif/sim/../tests/custom/templates/test_template.S:115
  addi t2, t2, 1
    800030bc:	0385                	addi	t2,t2,1
/cva6/verif/sim/../tests/custom/templates/test_template.S:116
  addi t3, t3, 1
    800030be:	0e05                	addi	t3,t3,1
/cva6/verif/sim/../tests/custom/templates/test_template.S:117
  addi t4, t4, 1
    800030c0:	0e85                	addi	t4,t4,1
/cva6/verif/sim/../tests/custom/templates/test_template.S:118
  addi t5, t5, 1
    800030c2:	0f05                	addi	t5,t5,1
/cva6/verif/sim/../tests/custom/templates/test_template.S:119
  addi t1, t1, 1
    800030c4:	0305                	addi	t1,t1,1
/cva6/verif/sim/../tests/custom/templates/test_template.S:120
  addi t2, t2, 1
    800030c6:	0385                	addi	t2,t2,1
/cva6/verif/sim/../tests/custom/templates/test_template.S:121
  addi t3, t3, 1
    800030c8:	0e05                	addi	t3,t3,1
/cva6/verif/sim/../tests/custom/templates/test_template.S:122
  addi t4, t4, 1
    800030ca:	0e85                	addi	t4,t4,1
/cva6/verif/sim/../tests/custom/templates/test_template.S:123
  addi t5, t5, 1
    800030cc:	0f05                	addi	t5,t5,1
/cva6/verif/sim/../tests/custom/templates/test_template.S:124
  addi t1, t1, 1
    800030ce:	0305                	addi	t1,t1,1
/cva6/verif/sim/../tests/custom/templates/test_template.S:125
  addi t2, t2, 1
    800030d0:	0385                	addi	t2,t2,1
/cva6/verif/sim/../tests/custom/templates/test_template.S:126
  addi t3, t3, 1
    800030d2:	0e05                	addi	t3,t3,1
/cva6/verif/sim/../tests/custom/templates/test_template.S:127
  addi t4, t4, 1
    800030d4:	0e85                	addi	t4,t4,1
/cva6/verif/sim/../tests/custom/templates/test_template.S:128
  addi t5, t5, 1
    800030d6:	0f05                	addi	t5,t5,1
/cva6/verif/sim/../tests/custom/templates/test_template.S:129
  addi t1, t1, 1
    800030d8:	0305                	addi	t1,t1,1
/cva6/verif/sim/../tests/custom/templates/test_template.S:130
  addi t2, t2, 1
    800030da:	0385                	addi	t2,t2,1
/cva6/verif/sim/../tests/custom/templates/test_template.S:131
  addi t3, t3, 1
    800030dc:	0e05                	addi	t3,t3,1
/cva6/verif/sim/../tests/custom/templates/test_template.S:132
  addi t4, t4, 1
    800030de:	0e85                	addi	t4,t4,1
/cva6/verif/sim/../tests/custom/templates/test_template.S:133
  addi t5, t5, 1
    800030e0:	0f05                	addi	t5,t5,1
/cva6/verif/sim/../tests/custom/templates/test_template.S:134
  addi t1, t1, 1
    800030e2:	0305                	addi	t1,t1,1
/cva6/verif/sim/../tests/custom/templates/test_template.S:135
  addi t2, t2, 1
    800030e4:	0385                	addi	t2,t2,1
/cva6/verif/sim/../tests/custom/templates/test_template.S:136
  addi t3, t3, 1
    800030e6:	0e05                	addi	t3,t3,1
/cva6/verif/sim/../tests/custom/templates/test_template.S:137
  addi t4, t4, 1
    800030e8:	0e85                	addi	t4,t4,1
/cva6/verif/sim/../tests/custom/templates/test_template.S:138
  addi t5, t5, 1
    800030ea:	0f05                	addi	t5,t5,1
/cva6/verif/sim/../tests/custom/templates/test_template.S:139
  addi t1, t1, 1
    800030ec:	0305                	addi	t1,t1,1
/cva6/verif/sim/../tests/custom/templates/test_template.S:140
  addi t2, t2, 1
    800030ee:	0385                	addi	t2,t2,1
/cva6/verif/sim/../tests/custom/templates/test_template.S:141
  addi t3, t3, 1
    800030f0:	0e05                	addi	t3,t3,1
/cva6/verif/sim/../tests/custom/templates/test_template.S:142
  addi t4, t4, 1
    800030f2:	0e85                	addi	t4,t4,1
/cva6/verif/sim/../tests/custom/templates/test_template.S:143
  addi t5, t5, 1
    800030f4:	0f05                	addi	t5,t5,1
/cva6/verif/sim/../tests/custom/templates/test_template.S:144
  addi t1, t1, 1
    800030f6:	0305                	addi	t1,t1,1
/cva6/verif/sim/../tests/custom/templates/test_template.S:145
  addi t2, t2, 1
    800030f8:	0385                	addi	t2,t2,1
/cva6/verif/sim/../tests/custom/templates/test_template.S:146
  addi t3, t3, 1
    800030fa:	0e05                	addi	t3,t3,1
/cva6/verif/sim/../tests/custom/templates/test_template.S:147
  addi t4, t4, 1
    800030fc:	0e85                	addi	t4,t4,1
/cva6/verif/sim/../tests/custom/templates/test_template.S:148
  addi t5, t5, 1
    800030fe:	0f05                	addi	t5,t5,1
/cva6/verif/sim/../tests/custom/templates/test_template.S:149
  addi t1, t1, 1
    80003100:	0305                	addi	t1,t1,1
/cva6/verif/sim/../tests/custom/templates/test_template.S:150
  addi t2, t2, 1
    80003102:	0385                	addi	t2,t2,1
/cva6/verif/sim/../tests/custom/templates/test_template.S:151
  addi t3, t3, 1
    80003104:	0e05                	addi	t3,t3,1
/cva6/verif/sim/../tests/custom/templates/test_template.S:152
  addi t4, t4, 1
    80003106:	0e85                	addi	t4,t4,1
/cva6/verif/sim/../tests/custom/templates/test_template.S:153
  addi t5, t5, 1
    80003108:	0f05                	addi	t5,t5,1
/cva6/verif/sim/../tests/custom/templates/test_template.S:154
  addi t1, t1, 1
    8000310a:	0305                	addi	t1,t1,1
/cva6/verif/sim/../tests/custom/templates/test_template.S:155
  addi t2, t2, 1
    8000310c:	0385                	addi	t2,t2,1
/cva6/verif/sim/../tests/custom/templates/test_template.S:156
  addi t3, t3, 1
    8000310e:	0e05                	addi	t3,t3,1
/cva6/verif/sim/../tests/custom/templates/test_template.S:157
  addi t4, t4, 1
    80003110:	0e85                	addi	t4,t4,1
/cva6/verif/sim/../tests/custom/templates/test_template.S:158
  addi t5, t5, 1
    80003112:	0f05                	addi	t5,t5,1
/cva6/verif/sim/../tests/custom/templates/test_template.S:159
  addi t1, t1, 1
    80003114:	0305                	addi	t1,t1,1
/cva6/verif/sim/../tests/custom/templates/test_template.S:160
  addi t2, t2, 1
    80003116:	0385                	addi	t2,t2,1
/cva6/verif/sim/../tests/custom/templates/test_template.S:161
  addi t3, t3, 1
    80003118:	0e05                	addi	t3,t3,1
/cva6/verif/sim/../tests/custom/templates/test_template.S:162
  addi t4, t4, 1
    8000311a:	0e85                	addi	t4,t4,1
/cva6/verif/sim/../tests/custom/templates/test_template.S:163
  addi t5, t5, 1
    8000311c:	0f05                	addi	t5,t5,1
/cva6/verif/sim/../tests/custom/templates/test_template.S:164
  addi t1, t1, 1
    8000311e:	0305                	addi	t1,t1,1
/cva6/verif/sim/../tests/custom/templates/test_template.S:165
  addi t2, t2, 1
    80003120:	0385                	addi	t2,t2,1
/cva6/verif/sim/../tests/custom/templates/test_template.S:166
  addi t3, t3, 1
    80003122:	0e05                	addi	t3,t3,1
/cva6/verif/sim/../tests/custom/templates/test_template.S:167
  addi t4, t4, 1
    80003124:	0e85                	addi	t4,t4,1
/cva6/verif/sim/../tests/custom/templates/test_template.S:168
  addi t5, t5, 1
    80003126:	0f05                	addi	t5,t5,1
/cva6/verif/sim/../tests/custom/templates/test_template.S:169
  addi t1, t1, 1
    80003128:	0305                	addi	t1,t1,1
/cva6/verif/sim/../tests/custom/templates/test_template.S:170
  addi t2, t2, 1
    8000312a:	0385                	addi	t2,t2,1
/cva6/verif/sim/../tests/custom/templates/test_template.S:171
  addi t3, t3, 1
    8000312c:	0e05                	addi	t3,t3,1
/cva6/verif/sim/../tests/custom/templates/test_template.S:172
  addi t4, t4, 1
    8000312e:	0e85                	addi	t4,t4,1
/cva6/verif/sim/../tests/custom/templates/test_template.S:173
  addi t5, t5, 1
    80003130:	0f05                	addi	t5,t5,1
/cva6/verif/sim/../tests/custom/templates/test_template.S:174
  addi t1, t1, 1
    80003132:	0305                	addi	t1,t1,1
/cva6/verif/sim/../tests/custom/templates/test_template.S:175
  addi t2, t2, 1
    80003134:	0385                	addi	t2,t2,1
/cva6/verif/sim/../tests/custom/templates/test_template.S:176
  addi t3, t3, 1
    80003136:	0e05                	addi	t3,t3,1
/cva6/verif/sim/../tests/custom/templates/test_template.S:177
  addi t4, t4, 1
    80003138:	0e85                	addi	t4,t4,1
/cva6/verif/sim/../tests/custom/templates/test_template.S:178
  addi t5, t5, 1
    8000313a:	0f05                	addi	t5,t5,1
/cva6/verif/sim/../tests/custom/templates/test_template.S:179
  addi t1, t1, 1
    8000313c:	0305                	addi	t1,t1,1
/cva6/verif/sim/../tests/custom/templates/test_template.S:180
  addi t2, t2, 1
    8000313e:	0385                	addi	t2,t2,1
/cva6/verif/sim/../tests/custom/templates/test_template.S:181
  addi t3, t3, 1
    80003140:	0e05                	addi	t3,t3,1
/cva6/verif/sim/../tests/custom/templates/test_template.S:182
  addi t4, t4, 1
    80003142:	0e85                	addi	t4,t4,1
/cva6/verif/sim/../tests/custom/templates/test_template.S:183
  addi t5, t5, 1
    80003144:	0f05                	addi	t5,t5,1
/cva6/verif/sim/../tests/custom/templates/test_template.S:184
  addi t1, t1, 1
    80003146:	0305                	addi	t1,t1,1
/cva6/verif/sim/../tests/custom/templates/test_template.S:185
  addi t2, t2, 1
    80003148:	0385                	addi	t2,t2,1
/cva6/verif/sim/../tests/custom/templates/test_template.S:186
  addi t3, t3, 1
    8000314a:	0e05                	addi	t3,t3,1
/cva6/verif/sim/../tests/custom/templates/test_template.S:187
  addi t4, t4, 1
    8000314c:	0e85                	addi	t4,t4,1
/cva6/verif/sim/../tests/custom/templates/test_template.S:188
  addi t5, t5, 1
    8000314e:	0f05                	addi	t5,t5,1
/cva6/verif/sim/../tests/custom/templates/test_template.S:189
  addi t1, t1, 1
    80003150:	0305                	addi	t1,t1,1
/cva6/verif/sim/../tests/custom/templates/test_template.S:190
  addi t2, t2, 1
    80003152:	0385                	addi	t2,t2,1
/cva6/verif/sim/../tests/custom/templates/test_template.S:191
  addi t3, t3, 1
    80003154:	0e05                	addi	t3,t3,1
/cva6/verif/sim/../tests/custom/templates/test_template.S:192
  addi t4, t4, 1
    80003156:	0e85                	addi	t4,t4,1
/cva6/verif/sim/../tests/custom/templates/test_template.S:193
  addi t5, t5, 1
    80003158:	0f05                	addi	t5,t5,1
/cva6/verif/sim/../tests/custom/templates/test_template.S:194
  addi t1, t1, 1
    8000315a:	0305                	addi	t1,t1,1
/cva6/verif/sim/../tests/custom/templates/test_template.S:195
  addi t2, t2, 1
    8000315c:	0385                	addi	t2,t2,1
/cva6/verif/sim/../tests/custom/templates/test_template.S:196
  addi t3, t3, 1
    8000315e:	0e05                	addi	t3,t3,1
/cva6/verif/sim/../tests/custom/templates/test_template.S:197
  addi t4, t4, 1
    80003160:	0e85                	addi	t4,t4,1
/cva6/verif/sim/../tests/custom/templates/test_template.S:198
  addi t5, t5, 1
    80003162:	0f05                	addi	t5,t5,1
/cva6/verif/sim/../tests/custom/templates/test_template.S:199
  addi t1, t1, 1
    80003164:	0305                	addi	t1,t1,1
/cva6/verif/sim/../tests/custom/templates/test_template.S:200
  addi t2, t2, 1
    80003166:	0385                	addi	t2,t2,1
/cva6/verif/sim/../tests/custom/templates/test_template.S:201
  addi t3, t3, 1
    80003168:	0e05                	addi	t3,t3,1
/cva6/verif/sim/../tests/custom/templates/test_template.S:202
  addi t4, t4, 1
    8000316a:	0e85                	addi	t4,t4,1
/cva6/verif/sim/../tests/custom/templates/test_template.S:203
  addi t5, t5, 1
    8000316c:	0f05                	addi	t5,t5,1
/cva6/verif/sim/../tests/custom/templates/test_template.S:204
  addi t1, t1, 1
    8000316e:	0305                	addi	t1,t1,1
/cva6/verif/sim/../tests/custom/templates/test_template.S:205
  addi t2, t2, 1
    80003170:	0385                	addi	t2,t2,1
/cva6/verif/sim/../tests/custom/templates/test_template.S:206
  addi t3, t3, 1
    80003172:	0e05                	addi	t3,t3,1
/cva6/verif/sim/../tests/custom/templates/test_template.S:207
  addi t4, t4, 1
    80003174:	0e85                	addi	t4,t4,1
/cva6/verif/sim/../tests/custom/templates/test_template.S:208
  addi t5, t5, 1
    80003176:	0f05                	addi	t5,t5,1
/cva6/verif/sim/../tests/custom/templates/test_template.S:209
  addi t1, t1, 1
    80003178:	0305                	addi	t1,t1,1
/cva6/verif/sim/../tests/custom/templates/test_template.S:210
  addi t2, t2, 1
    8000317a:	0385                	addi	t2,t2,1
/cva6/verif/sim/../tests/custom/templates/test_template.S:211
  addi t3, t3, 1
    8000317c:	0e05                	addi	t3,t3,1
/cva6/verif/sim/../tests/custom/templates/test_template.S:212
  addi t4, t4, 1
    8000317e:	0e85                	addi	t4,t4,1
/cva6/verif/sim/../tests/custom/templates/test_template.S:213
  addi t5, t5, 1
    80003180:	0f05                	addi	t5,t5,1
/cva6/verif/sim/../tests/custom/templates/test_template.S:214
  addi t1, t1, 1
    80003182:	0305                	addi	t1,t1,1
/cva6/verif/sim/../tests/custom/templates/test_template.S:215
  addi t2, t2, 1
    80003184:	0385                	addi	t2,t2,1
/cva6/verif/sim/../tests/custom/templates/test_template.S:216
  addi t3, t3, 1
    80003186:	0e05                	addi	t3,t3,1
/cva6/verif/sim/../tests/custom/templates/test_template.S:217
  addi t4, t4, 1
    80003188:	0e85                	addi	t4,t4,1
/cva6/verif/sim/../tests/custom/templates/test_template.S:218
  addi t5, t5, 1
    8000318a:	0f05                	addi	t5,t5,1
/cva6/verif/sim/../tests/custom/templates/test_template.S:219
  addi t1, t1, 1
    8000318c:	0305                	addi	t1,t1,1
/cva6/verif/sim/../tests/custom/templates/test_template.S:220
  addi t2, t2, 1
    8000318e:	0385                	addi	t2,t2,1
/cva6/verif/sim/../tests/custom/templates/test_template.S:221
  addi t3, t3, 1
    80003190:	0e05                	addi	t3,t3,1
/cva6/verif/sim/../tests/custom/templates/test_template.S:222
  addi t4, t4, 1
    80003192:	0e85                	addi	t4,t4,1
/cva6/verif/sim/../tests/custom/templates/test_template.S:223
  addi t5, t5, 1
    80003194:	0f05                	addi	t5,t5,1
/cva6/verif/sim/../tests/custom/templates/test_template.S:224
  addi t1, t1, 1
    80003196:	0305                	addi	t1,t1,1
/cva6/verif/sim/../tests/custom/templates/test_template.S:225
  addi t2, t2, 1
    80003198:	0385                	addi	t2,t2,1
/cva6/verif/sim/../tests/custom/templates/test_template.S:226
  addi t3, t3, 1
    8000319a:	0e05                	addi	t3,t3,1
/cva6/verif/sim/../tests/custom/templates/test_template.S:227
  addi t4, t4, 1
    8000319c:	0e85                	addi	t4,t4,1
/cva6/verif/sim/../tests/custom/templates/test_template.S:228
  addi t5, t5, 1
    8000319e:	0f05                	addi	t5,t5,1
/cva6/verif/sim/../tests/custom/templates/test_template.S:229
  addi t1, t1, 1
    800031a0:	0305                	addi	t1,t1,1
/cva6/verif/sim/../tests/custom/templates/test_template.S:230
  addi t2, t2, 1
    800031a2:	0385                	addi	t2,t2,1
/cva6/verif/sim/../tests/custom/templates/test_template.S:231
  addi t3, t3, 1
    800031a4:	0e05                	addi	t3,t3,1
/cva6/verif/sim/../tests/custom/templates/test_template.S:232
  addi t4, t4, 1
    800031a6:	0e85                	addi	t4,t4,1
/cva6/verif/sim/../tests/custom/templates/test_template.S:233
  addi t5, t5, 1
    800031a8:	0f05                	addi	t5,t5,1
/cva6/verif/sim/../tests/custom/templates/test_template.S:234
  addi t1, t1, 1
    800031aa:	0305                	addi	t1,t1,1
/cva6/verif/sim/../tests/custom/templates/test_template.S:235
  addi t2, t2, 1
    800031ac:	0385                	addi	t2,t2,1
/cva6/verif/sim/../tests/custom/templates/test_template.S:236
  addi t3, t3, 1
    800031ae:	0e05                	addi	t3,t3,1
/cva6/verif/sim/../tests/custom/templates/test_template.S:237
  addi t4, t4, 1
    800031b0:	0e85                	addi	t4,t4,1
/cva6/verif/sim/../tests/custom/templates/test_template.S:238
  addi t5, t5, 1
    800031b2:	0f05                	addi	t5,t5,1
/cva6/verif/sim/../tests/custom/templates/test_template.S:239
  addi t1, t1, 1
    800031b4:	0305                	addi	t1,t1,1
/cva6/verif/sim/../tests/custom/templates/test_template.S:240
  addi t2, t2, 1
    800031b6:	0385                	addi	t2,t2,1
/cva6/verif/sim/../tests/custom/templates/test_template.S:241
  addi t3, t3, 1
    800031b8:	0e05                	addi	t3,t3,1
/cva6/verif/sim/../tests/custom/templates/test_template.S:242
  addi t4, t4, 1
    800031ba:	0e85                	addi	t4,t4,1
/cva6/verif/sim/../tests/custom/templates/test_template.S:243
  addi t5, t5, 1
    800031bc:	0f05                	addi	t5,t5,1
/cva6/verif/sim/../tests/custom/templates/test_template.S:244
  addi t1, t1, 1
    800031be:	0305                	addi	t1,t1,1
/cva6/verif/sim/../tests/custom/templates/test_template.S:245
  addi t2, t2, 1
    800031c0:	0385                	addi	t2,t2,1
/cva6/verif/sim/../tests/custom/templates/test_template.S:246
  addi t3, t3, 1
    800031c2:	0e05                	addi	t3,t3,1
/cva6/verif/sim/../tests/custom/templates/test_template.S:247
  addi t4, t4, 1
    800031c4:	0e85                	addi	t4,t4,1
/cva6/verif/sim/../tests/custom/templates/test_template.S:248
  addi t5, t5, 1
    800031c6:	0f05                	addi	t5,t5,1
/cva6/verif/sim/../tests/custom/templates/test_template.S:249
  addi t1, t1, 1
    800031c8:	0305                	addi	t1,t1,1
/cva6/verif/sim/../tests/custom/templates/test_template.S:250
  addi t2, t2, 1
    800031ca:	0385                	addi	t2,t2,1
/cva6/verif/sim/../tests/custom/templates/test_template.S:251
  addi t3, t3, 1
    800031cc:	0e05                	addi	t3,t3,1
/cva6/verif/sim/../tests/custom/templates/test_template.S:252
  addi t4, t4, 1
    800031ce:	0e85                	addi	t4,t4,1
/cva6/verif/sim/../tests/custom/templates/test_template.S:253
  addi t5, t5, 1
    800031d0:	0f05                	addi	t5,t5,1
/cva6/verif/sim/../tests/custom/templates/test_template.S:254
  addi t1, t1, 1
    800031d2:	0305                	addi	t1,t1,1
/cva6/verif/sim/../tests/custom/templates/test_template.S:255
  addi t2, t2, 1
    800031d4:	0385                	addi	t2,t2,1
/cva6/verif/sim/../tests/custom/templates/test_template.S:256
  addi t3, t3, 1
    800031d6:	0e05                	addi	t3,t3,1
/cva6/verif/sim/../tests/custom/templates/test_template.S:257
  addi t4, t4, 1
    800031d8:	0e85                	addi	t4,t4,1
/cva6/verif/sim/../tests/custom/templates/test_template.S:258
  addi t5, t5, 1
    800031da:	0f05                	addi	t5,t5,1
/cva6/verif/sim/../tests/custom/templates/test_template.S:259
  addi t1, t1, 1
    800031dc:	0305                	addi	t1,t1,1
/cva6/verif/sim/../tests/custom/templates/test_template.S:260
  addi t2, t2, 1
    800031de:	0385                	addi	t2,t2,1
/cva6/verif/sim/../tests/custom/templates/test_template.S:261
  addi t3, t3, 1
    800031e0:	0e05                	addi	t3,t3,1
/cva6/verif/sim/../tests/custom/templates/test_template.S:262
  addi t4, t4, 1
    800031e2:	0e85                	addi	t4,t4,1
/cva6/verif/sim/../tests/custom/templates/test_template.S:263
  addi t5, t5, 1
    800031e4:	0f05                	addi	t5,t5,1
/cva6/verif/sim/../tests/custom/templates/test_template.S:264
  addi t1, t1, 1
    800031e6:	0305                	addi	t1,t1,1
/cva6/verif/sim/../tests/custom/templates/test_template.S:265
  addi t2, t2, 1
    800031e8:	0385                	addi	t2,t2,1
/cva6/verif/sim/../tests/custom/templates/test_template.S:266
  addi t3, t3, 1
    800031ea:	0e05                	addi	t3,t3,1
/cva6/verif/sim/../tests/custom/templates/test_template.S:267
  addi t4, t4, 1
    800031ec:	0e85                	addi	t4,t4,1
/cva6/verif/sim/../tests/custom/templates/test_template.S:268
  addi t5, t5, 1
    800031ee:	0f05                	addi	t5,t5,1
/cva6/verif/sim/../tests/custom/templates/test_template.S:269
  addi t1, t1, 1
    800031f0:	0305                	addi	t1,t1,1
/cva6/verif/sim/../tests/custom/templates/test_template.S:270
  addi t2, t2, 1
    800031f2:	0385                	addi	t2,t2,1
/cva6/verif/sim/../tests/custom/templates/test_template.S:271
  addi t3, t3, 1
    800031f4:	0e05                	addi	t3,t3,1
/cva6/verif/sim/../tests/custom/templates/test_template.S:272
  addi t4, t4, 1
    800031f6:	0e85                	addi	t4,t4,1
/cva6/verif/sim/../tests/custom/templates/test_template.S:273
  addi t5, t5, 1
    800031f8:	0f05                	addi	t5,t5,1
/cva6/verif/sim/../tests/custom/templates/test_template.S:274
  addi t1, t1, 1
    800031fa:	0305                	addi	t1,t1,1
/cva6/verif/sim/../tests/custom/templates/test_template.S:275
  addi t2, t2, 1
    800031fc:	0385                	addi	t2,t2,1
/cva6/verif/sim/../tests/custom/templates/test_template.S:276
  addi t3, t3, 1
    800031fe:	0e05                	addi	t3,t3,1
/cva6/verif/sim/../tests/custom/templates/test_template.S:277
  addi t4, t4, 1
    80003200:	0e85                	addi	t4,t4,1
/cva6/verif/sim/../tests/custom/templates/test_template.S:278
  addi t5, t5, 1
    80003202:	0f05                	addi	t5,t5,1
/cva6/verif/sim/../tests/custom/templates/test_template.S:279
  addi t1, t1, 1
    80003204:	0305                	addi	t1,t1,1
/cva6/verif/sim/../tests/custom/templates/test_template.S:280
  addi t2, t2, 1
    80003206:	0385                	addi	t2,t2,1
/cva6/verif/sim/../tests/custom/templates/test_template.S:281
  addi t3, t3, 1
    80003208:	0e05                	addi	t3,t3,1
/cva6/verif/sim/../tests/custom/templates/test_template.S:282
  addi t4, t4, 1
    8000320a:	0e85                	addi	t4,t4,1
/cva6/verif/sim/../tests/custom/templates/test_template.S:283
  addi t5, t5, 1
    8000320c:	0f05                	addi	t5,t5,1
/cva6/verif/sim/../tests/custom/templates/test_template.S:284
  addi t1, t1, 1
    8000320e:	0305                	addi	t1,t1,1
/cva6/verif/sim/../tests/custom/templates/test_template.S:285
  addi t2, t2, 1
    80003210:	0385                	addi	t2,t2,1
/cva6/verif/sim/../tests/custom/templates/test_template.S:286
  addi t3, t3, 1
    80003212:	0e05                	addi	t3,t3,1
/cva6/verif/sim/../tests/custom/templates/test_template.S:287
  addi t4, t4, 1
    80003214:	0e85                	addi	t4,t4,1
/cva6/verif/sim/../tests/custom/templates/test_template.S:288
  addi t5, t5, 1
    80003216:	0f05                	addi	t5,t5,1
/cva6/verif/sim/../tests/custom/templates/test_template.S:289
  addi t1, t1, 1
    80003218:	0305                	addi	t1,t1,1
/cva6/verif/sim/../tests/custom/templates/test_template.S:290
  addi t2, t2, 1
    8000321a:	0385                	addi	t2,t2,1
/cva6/verif/sim/../tests/custom/templates/test_template.S:291
  addi t3, t3, 1
    8000321c:	0e05                	addi	t3,t3,1
/cva6/verif/sim/../tests/custom/templates/test_template.S:292
  addi t4, t4, 1
    8000321e:	0e85                	addi	t4,t4,1
/cva6/verif/sim/../tests/custom/templates/test_template.S:293
  addi t5, t5, 1
    80003220:	0f05                	addi	t5,t5,1
/cva6/verif/sim/../tests/custom/templates/test_template.S:294
  addi t1, t1, 1
    80003222:	0305                	addi	t1,t1,1
/cva6/verif/sim/../tests/custom/templates/test_template.S:295
  addi t2, t2, 1
    80003224:	0385                	addi	t2,t2,1
/cva6/verif/sim/../tests/custom/templates/test_template.S:296
  addi t3, t3, 1
    80003226:	0e05                	addi	t3,t3,1
/cva6/verif/sim/../tests/custom/templates/test_template.S:297
  addi t4, t4, 1
    80003228:	0e85                	addi	t4,t4,1
/cva6/verif/sim/../tests/custom/templates/test_template.S:298
  addi t5, t5, 1
    8000322a:	0f05                	addi	t5,t5,1
/cva6/verif/sim/../tests/custom/templates/test_template.S:299
  addi t1, t1, 1
    8000322c:	0305                	addi	t1,t1,1
/cva6/verif/sim/../tests/custom/templates/test_template.S:300
  addi t2, t2, 1
    8000322e:	0385                	addi	t2,t2,1
/cva6/verif/sim/../tests/custom/templates/test_template.S:301
  addi t3, t3, 1
    80003230:	0e05                	addi	t3,t3,1
/cva6/verif/sim/../tests/custom/templates/test_template.S:302
  addi t4, t4, 1
    80003232:	0e85                	addi	t4,t4,1
/cva6/verif/sim/../tests/custom/templates/test_template.S:303
  addi t5, t5, 1
    80003234:	0f05                	addi	t5,t5,1
/cva6/verif/sim/../tests/custom/templates/test_template.S:304
  addi t1, t1, 1
    80003236:	0305                	addi	t1,t1,1
/cva6/verif/sim/../tests/custom/templates/test_template.S:305
  addi t2, t2, 1
    80003238:	0385                	addi	t2,t2,1
/cva6/verif/sim/../tests/custom/templates/test_template.S:306
  addi t3, t3, 1
    8000323a:	0e05                	addi	t3,t3,1
/cva6/verif/sim/../tests/custom/templates/test_template.S:307
  addi t4, t4, 1
    8000323c:	0e85                	addi	t4,t4,1
/cva6/verif/sim/../tests/custom/templates/test_template.S:308
  addi t5, t5, 1
    8000323e:	0f05                	addi	t5,t5,1
/cva6/verif/sim/../tests/custom/templates/test_template.S:309
  addi t1, t1, 1
    80003240:	0305                	addi	t1,t1,1
/cva6/verif/sim/../tests/custom/templates/test_template.S:310
  addi t2, t2, 1
    80003242:	0385                	addi	t2,t2,1
/cva6/verif/sim/../tests/custom/templates/test_template.S:311
  addi t3, t3, 1
    80003244:	0e05                	addi	t3,t3,1
/cva6/verif/sim/../tests/custom/templates/test_template.S:312
  addi t4, t4, 1
    80003246:	0e85                	addi	t4,t4,1
/cva6/verif/sim/../tests/custom/templates/test_template.S:313
  addi t5, t5, 1
    80003248:	0f05                	addi	t5,t5,1
/cva6/verif/sim/../tests/custom/templates/test_template.S:314
  addi t1, t1, 1
    8000324a:	0305                	addi	t1,t1,1
/cva6/verif/sim/../tests/custom/templates/test_template.S:315
  addi t2, t2, 1
    8000324c:	0385                	addi	t2,t2,1
/cva6/verif/sim/../tests/custom/templates/test_template.S:316
  addi t3, t3, 1
    8000324e:	0e05                	addi	t3,t3,1
/cva6/verif/sim/../tests/custom/templates/test_template.S:317
  addi t4, t4, 1
    80003250:	0e85                	addi	t4,t4,1
/cva6/verif/sim/../tests/custom/templates/test_template.S:318
  addi t5, t5, 1
    80003252:	0f05                	addi	t5,t5,1
/cva6/verif/sim/../tests/custom/templates/test_template.S:319
  addi t1, t1, 1
    80003254:	0305                	addi	t1,t1,1
/cva6/verif/sim/../tests/custom/templates/test_template.S:320
  addi t2, t2, 1
    80003256:	0385                	addi	t2,t2,1
/cva6/verif/sim/../tests/custom/templates/test_template.S:321
  addi t3, t3, 1
    80003258:	0e05                	addi	t3,t3,1
/cva6/verif/sim/../tests/custom/templates/test_template.S:322
  addi t4, t4, 1
    8000325a:	0e85                	addi	t4,t4,1
/cva6/verif/sim/../tests/custom/templates/test_template.S:323
  addi t5, t5, 1
    8000325c:	0f05                	addi	t5,t5,1
/cva6/verif/sim/../tests/custom/templates/test_template.S:324
  addi t1, t1, 1
    8000325e:	0305                	addi	t1,t1,1
/cva6/verif/sim/../tests/custom/templates/test_template.S:325
  addi t2, t2, 1
    80003260:	0385                	addi	t2,t2,1
/cva6/verif/sim/../tests/custom/templates/test_template.S:326
  addi t3, t3, 1
    80003262:	0e05                	addi	t3,t3,1
/cva6/verif/sim/../tests/custom/templates/test_template.S:327
  addi t4, t4, 1
    80003264:	0e85                	addi	t4,t4,1
/cva6/verif/sim/../tests/custom/templates/test_template.S:328
  addi t5, t5, 1
    80003266:	0f05                	addi	t5,t5,1
/cva6/verif/sim/../tests/custom/templates/test_template.S:329
  addi t1, t1, 1
    80003268:	0305                	addi	t1,t1,1
/cva6/verif/sim/../tests/custom/templates/test_template.S:330
  addi t2, t2, 1
    8000326a:	0385                	addi	t2,t2,1
/cva6/verif/sim/../tests/custom/templates/test_template.S:331
  addi t3, t3, 1
    8000326c:	0e05                	addi	t3,t3,1
/cva6/verif/sim/../tests/custom/templates/test_template.S:332
  addi t4, t4, 1
    8000326e:	0e85                	addi	t4,t4,1
/cva6/verif/sim/../tests/custom/templates/test_template.S:333
  addi t5, t5, 1
    80003270:	0f05                	addi	t5,t5,1
/cva6/verif/sim/../tests/custom/templates/test_template.S:334
  addi t1, t1, 1
    80003272:	0305                	addi	t1,t1,1
/cva6/verif/sim/../tests/custom/templates/test_template.S:335
  addi t2, t2, 1
    80003274:	0385                	addi	t2,t2,1
/cva6/verif/sim/../tests/custom/templates/test_template.S:336
  addi t3, t3, 1
    80003276:	0e05                	addi	t3,t3,1
/cva6/verif/sim/../tests/custom/templates/test_template.S:337
  addi t4, t4, 1
    80003278:	0e85                	addi	t4,t4,1
/cva6/verif/sim/../tests/custom/templates/test_template.S:338
  addi t5, t5, 1
    8000327a:	0f05                	addi	t5,t5,1
/cva6/verif/sim/../tests/custom/templates/test_template.S:339
  addi t1, t1, 1
    8000327c:	0305                	addi	t1,t1,1
/cva6/verif/sim/../tests/custom/templates/test_template.S:340
  addi t2, t2, 1
    8000327e:	0385                	addi	t2,t2,1
/cva6/verif/sim/../tests/custom/templates/test_template.S:341
  addi t3, t3, 1
    80003280:	0e05                	addi	t3,t3,1
/cva6/verif/sim/../tests/custom/templates/test_template.S:342
  addi t4, t4, 1
    80003282:	0e85                	addi	t4,t4,1
/cva6/verif/sim/../tests/custom/templates/test_template.S:343
  addi t5, t5, 1
    80003284:	0f05                	addi	t5,t5,1
/cva6/verif/sim/../tests/custom/templates/test_template.S:344
  addi t1, t1, 1
    80003286:	0305                	addi	t1,t1,1
/cva6/verif/sim/../tests/custom/templates/test_template.S:345
  addi t2, t2, 1
    80003288:	0385                	addi	t2,t2,1
/cva6/verif/sim/../tests/custom/templates/test_template.S:346
  addi t3, t3, 1
    8000328a:	0e05                	addi	t3,t3,1
/cva6/verif/sim/../tests/custom/templates/test_template.S:347
  addi t4, t4, 1
    8000328c:	0e85                	addi	t4,t4,1
/cva6/verif/sim/../tests/custom/templates/test_template.S:348
  addi t5, t5, 1
    8000328e:	0f05                	addi	t5,t5,1
/cva6/verif/sim/../tests/custom/templates/test_template.S:349
  addi t1, t1, 1
    80003290:	0305                	addi	t1,t1,1
/cva6/verif/sim/../tests/custom/templates/test_template.S:350
  addi t2, t2, 1
    80003292:	0385                	addi	t2,t2,1
/cva6/verif/sim/../tests/custom/templates/test_template.S:351
  addi t3, t3, 1
    80003294:	0e05                	addi	t3,t3,1
/cva6/verif/sim/../tests/custom/templates/test_template.S:352
  addi t4, t4, 1
    80003296:	0e85                	addi	t4,t4,1
/cva6/verif/sim/../tests/custom/templates/test_template.S:353
  addi t5, t5, 1
    80003298:	0f05                	addi	t5,t5,1
/cva6/verif/sim/../tests/custom/templates/test_template.S:354
  addi t1, t1, 1
    8000329a:	0305                	addi	t1,t1,1
/cva6/verif/sim/../tests/custom/templates/test_template.S:355
  addi t2, t2, 1
    8000329c:	0385                	addi	t2,t2,1
/cva6/verif/sim/../tests/custom/templates/test_template.S:356
  addi t3, t3, 1
    8000329e:	0e05                	addi	t3,t3,1
/cva6/verif/sim/../tests/custom/templates/test_template.S:357
  addi t4, t4, 1
    800032a0:	0e85                	addi	t4,t4,1
/cva6/verif/sim/../tests/custom/templates/test_template.S:358
  addi t5, t5, 1
    800032a2:	0f05                	addi	t5,t5,1
/cva6/verif/sim/../tests/custom/templates/test_template.S:359
  addi t1, t1, 1
    800032a4:	0305                	addi	t1,t1,1
/cva6/verif/sim/../tests/custom/templates/test_template.S:360
  addi t2, t2, 1
    800032a6:	0385                	addi	t2,t2,1
/cva6/verif/sim/../tests/custom/templates/test_template.S:361
  addi t3, t3, 1
    800032a8:	0e05                	addi	t3,t3,1
/cva6/verif/sim/../tests/custom/templates/test_template.S:362
  addi t4, t4, 1
    800032aa:	0e85                	addi	t4,t4,1
/cva6/verif/sim/../tests/custom/templates/test_template.S:363
  addi t5, t5, 1
    800032ac:	0f05                	addi	t5,t5,1
/cva6/verif/sim/../tests/custom/templates/test_template.S:364
  addi t1, t1, 1
    800032ae:	0305                	addi	t1,t1,1
/cva6/verif/sim/../tests/custom/templates/test_template.S:365
  addi t2, t2, 1
    800032b0:	0385                	addi	t2,t2,1
/cva6/verif/sim/../tests/custom/templates/test_template.S:366
  addi t3, t3, 1
    800032b2:	0e05                	addi	t3,t3,1
/cva6/verif/sim/../tests/custom/templates/test_template.S:367
  addi t4, t4, 1
    800032b4:	0e85                	addi	t4,t4,1
/cva6/verif/sim/../tests/custom/templates/test_template.S:368
  addi t5, t5, 1
    800032b6:	0f05                	addi	t5,t5,1
/cva6/verif/sim/../tests/custom/templates/test_template.S:369
  addi t1, t1, 1
    800032b8:	0305                	addi	t1,t1,1
/cva6/verif/sim/../tests/custom/templates/test_template.S:370
  addi t2, t2, 1
    800032ba:	0385                	addi	t2,t2,1
/cva6/verif/sim/../tests/custom/templates/test_template.S:371
  addi t3, t3, 1
    800032bc:	0e05                	addi	t3,t3,1
/cva6/verif/sim/../tests/custom/templates/test_template.S:372
  addi t4, t4, 1
    800032be:	0e85                	addi	t4,t4,1
/cva6/verif/sim/../tests/custom/templates/test_template.S:373
  addi t5, t5, 1
    800032c0:	0f05                	addi	t5,t5,1
/cva6/verif/sim/../tests/custom/templates/test_template.S:374
  addi t1, t1, 1
    800032c2:	0305                	addi	t1,t1,1
/cva6/verif/sim/../tests/custom/templates/test_template.S:375
  addi t2, t2, 1
    800032c4:	0385                	addi	t2,t2,1
/cva6/verif/sim/../tests/custom/templates/test_template.S:376
  addi t3, t3, 1
    800032c6:	0e05                	addi	t3,t3,1
/cva6/verif/sim/../tests/custom/templates/test_template.S:377
  addi t4, t4, 1
    800032c8:	0e85                	addi	t4,t4,1
/cva6/verif/sim/../tests/custom/templates/test_template.S:378
  addi t5, t5, 1
    800032ca:	0f05                	addi	t5,t5,1
/cva6/verif/sim/../tests/custom/templates/test_template.S:379
  addi t1, t1, 1
    800032cc:	0305                	addi	t1,t1,1
/cva6/verif/sim/../tests/custom/templates/test_template.S:380
  addi t2, t2, 1
    800032ce:	0385                	addi	t2,t2,1
/cva6/verif/sim/../tests/custom/templates/test_template.S:381
  addi t3, t3, 1
    800032d0:	0e05                	addi	t3,t3,1
/cva6/verif/sim/../tests/custom/templates/test_template.S:382
  addi t4, t4, 1
    800032d2:	0e85                	addi	t4,t4,1
/cva6/verif/sim/../tests/custom/templates/test_template.S:383
  addi t5, t5, 1
    800032d4:	0f05                	addi	t5,t5,1
/cva6/verif/sim/../tests/custom/templates/test_template.S:384
  addi t1, t1, 1
    800032d6:	0305                	addi	t1,t1,1
/cva6/verif/sim/../tests/custom/templates/test_template.S:385
  addi t2, t2, 1
    800032d8:	0385                	addi	t2,t2,1
/cva6/verif/sim/../tests/custom/templates/test_template.S:386
  addi t3, t3, 1
    800032da:	0e05                	addi	t3,t3,1
/cva6/verif/sim/../tests/custom/templates/test_template.S:387
  addi t4, t4, 1
    800032dc:	0e85                	addi	t4,t4,1
/cva6/verif/sim/../tests/custom/templates/test_template.S:388
  addi t5, t5, 1
    800032de:	0f05                	addi	t5,t5,1
/cva6/verif/sim/../tests/custom/templates/test_template.S:389
  addi t1, t1, 1
    800032e0:	0305                	addi	t1,t1,1
/cva6/verif/sim/../tests/custom/templates/test_template.S:390
  addi t2, t2, 1
    800032e2:	0385                	addi	t2,t2,1
/cva6/verif/sim/../tests/custom/templates/test_template.S:391
  addi t3, t3, 1
    800032e4:	0e05                	addi	t3,t3,1
/cva6/verif/sim/../tests/custom/templates/test_template.S:392
  addi t4, t4, 1
    800032e6:	0e85                	addi	t4,t4,1
/cva6/verif/sim/../tests/custom/templates/test_template.S:393
  addi t5, t5, 1
    800032e8:	0f05                	addi	t5,t5,1
/cva6/verif/sim/../tests/custom/templates/test_template.S:394
  addi t1, t1, 1
    800032ea:	0305                	addi	t1,t1,1
/cva6/verif/sim/../tests/custom/templates/test_template.S:395
  addi t2, t2, 1
    800032ec:	0385                	addi	t2,t2,1
/cva6/verif/sim/../tests/custom/templates/test_template.S:396
  addi t3, t3, 1
    800032ee:	0e05                	addi	t3,t3,1
/cva6/verif/sim/../tests/custom/templates/test_template.S:397
  addi t4, t4, 1
    800032f0:	0e85                	addi	t4,t4,1
/cva6/verif/sim/../tests/custom/templates/test_template.S:398
  addi t5, t5, 1
    800032f2:	0f05                	addi	t5,t5,1
/cva6/verif/sim/../tests/custom/templates/test_template.S:399
  addi t1, t1, 1
    800032f4:	0305                	addi	t1,t1,1
/cva6/verif/sim/../tests/custom/templates/test_template.S:400
  addi t2, t2, 1
    800032f6:	0385                	addi	t2,t2,1
/cva6/verif/sim/../tests/custom/templates/test_template.S:401
  addi t3, t3, 1
    800032f8:	0e05                	addi	t3,t3,1
/cva6/verif/sim/../tests/custom/templates/test_template.S:402
  addi t4, t4, 1
    800032fa:	0e85                	addi	t4,t4,1
/cva6/verif/sim/../tests/custom/templates/test_template.S:403
  addi t5, t5, 1
    800032fc:	0f05                	addi	t5,t5,1
/cva6/verif/sim/../tests/custom/templates/test_template.S:404
  addi t1, t1, 1
    800032fe:	0305                	addi	t1,t1,1
/cva6/verif/sim/../tests/custom/templates/test_template.S:405
  addi t2, t2, 1
    80003300:	0385                	addi	t2,t2,1
/cva6/verif/sim/../tests/custom/templates/test_template.S:406
  addi t3, t3, 1
    80003302:	0e05                	addi	t3,t3,1
/cva6/verif/sim/../tests/custom/templates/test_template.S:407
  addi t4, t4, 1
    80003304:	0e85                	addi	t4,t4,1
/cva6/verif/sim/../tests/custom/templates/test_template.S:408
  addi t5, t5, 1
    80003306:	0f05                	addi	t5,t5,1
/cva6/verif/sim/../tests/custom/templates/test_template.S:409
  addi t1, t1, 1
    80003308:	0305                	addi	t1,t1,1
/cva6/verif/sim/../tests/custom/templates/test_template.S:410
  addi t2, t2, 1
    8000330a:	0385                	addi	t2,t2,1
/cva6/verif/sim/../tests/custom/templates/test_template.S:411
  addi t3, t3, 1
    8000330c:	0e05                	addi	t3,t3,1
/cva6/verif/sim/../tests/custom/templates/test_template.S:412
  addi t4, t4, 1
    8000330e:	0e85                	addi	t4,t4,1
/cva6/verif/sim/../tests/custom/templates/test_template.S:413
  addi t5, t5, 1
    80003310:	0f05                	addi	t5,t5,1
/cva6/verif/sim/../tests/custom/templates/test_template.S:414
  addi t1, t1, 1
    80003312:	0305                	addi	t1,t1,1
/cva6/verif/sim/../tests/custom/templates/test_template.S:415
  addi t2, t2, 1
    80003314:	0385                	addi	t2,t2,1
/cva6/verif/sim/../tests/custom/templates/test_template.S:416
  addi t3, t3, 1
    80003316:	0e05                	addi	t3,t3,1
/cva6/verif/sim/../tests/custom/templates/test_template.S:417
  addi t4, t4, 1
    80003318:	0e85                	addi	t4,t4,1
/cva6/verif/sim/../tests/custom/templates/test_template.S:418
  addi t5, t5, 1
    8000331a:	0f05                	addi	t5,t5,1
/cva6/verif/sim/../tests/custom/templates/test_template.S:419
  addi t1, t1, 1
    8000331c:	0305                	addi	t1,t1,1
/cva6/verif/sim/../tests/custom/templates/test_template.S:420
  addi t2, t2, 1
    8000331e:	0385                	addi	t2,t2,1
/cva6/verif/sim/../tests/custom/templates/test_template.S:421
  addi t3, t3, 1
    80003320:	0e05                	addi	t3,t3,1
/cva6/verif/sim/../tests/custom/templates/test_template.S:422
  addi t4, t4, 1
    80003322:	0e85                	addi	t4,t4,1
/cva6/verif/sim/../tests/custom/templates/test_template.S:423
  addi t5, t5, 1
    80003324:	0f05                	addi	t5,t5,1
/cva6/verif/sim/../tests/custom/templates/test_template.S:424
  addi t1, t1, 1
    80003326:	0305                	addi	t1,t1,1
/cva6/verif/sim/../tests/custom/templates/test_template.S:425
  addi t2, t2, 1
    80003328:	0385                	addi	t2,t2,1
/cva6/verif/sim/../tests/custom/templates/test_template.S:426
  addi t3, t3, 1
    8000332a:	0e05                	addi	t3,t3,1
/cva6/verif/sim/../tests/custom/templates/test_template.S:427
  addi t4, t4, 1
    8000332c:	0e85                	addi	t4,t4,1
/cva6/verif/sim/../tests/custom/templates/test_template.S:428
  addi t5, t5, 1
    8000332e:	0f05                	addi	t5,t5,1
/cva6/verif/sim/../tests/custom/templates/test_template.S:429
  addi t1, t1, 1
    80003330:	0305                	addi	t1,t1,1
/cva6/verif/sim/../tests/custom/templates/test_template.S:430
  addi t2, t2, 1
    80003332:	0385                	addi	t2,t2,1
/cva6/verif/sim/../tests/custom/templates/test_template.S:431
  addi t3, t3, 1
    80003334:	0e05                	addi	t3,t3,1
/cva6/verif/sim/../tests/custom/templates/test_template.S:432
  addi t4, t4, 1
    80003336:	0e85                	addi	t4,t4,1
/cva6/verif/sim/../tests/custom/templates/test_template.S:433
  addi t5, t5, 1
    80003338:	0f05                	addi	t5,t5,1
/cva6/verif/sim/../tests/custom/templates/test_template.S:434
  addi t1, t1, 1
    8000333a:	0305                	addi	t1,t1,1
/cva6/verif/sim/../tests/custom/templates/test_template.S:435
  addi t2, t2, 1
    8000333c:	0385                	addi	t2,t2,1
/cva6/verif/sim/../tests/custom/templates/test_template.S:436
  addi t3, t3, 1
    8000333e:	0e05                	addi	t3,t3,1
/cva6/verif/sim/../tests/custom/templates/test_template.S:437
  addi t4, t4, 1
    80003340:	0e85                	addi	t4,t4,1
/cva6/verif/sim/../tests/custom/templates/test_template.S:438
  addi t5, t5, 1
    80003342:	0f05                	addi	t5,t5,1
/cva6/verif/sim/../tests/custom/templates/test_template.S:439
  addi t1, t1, 1
    80003344:	0305                	addi	t1,t1,1
/cva6/verif/sim/../tests/custom/templates/test_template.S:440
  addi t2, t2, 1
    80003346:	0385                	addi	t2,t2,1
/cva6/verif/sim/../tests/custom/templates/test_template.S:441
  addi t3, t3, 1
    80003348:	0e05                	addi	t3,t3,1
/cva6/verif/sim/../tests/custom/templates/test_template.S:442
  addi t4, t4, 1
    8000334a:	0e85                	addi	t4,t4,1
/cva6/verif/sim/../tests/custom/templates/test_template.S:443
  addi t5, t5, 1
    8000334c:	0f05                	addi	t5,t5,1
/cva6/verif/sim/../tests/custom/templates/test_template.S:444
  addi t1, t1, 1
    8000334e:	0305                	addi	t1,t1,1
/cva6/verif/sim/../tests/custom/templates/test_template.S:445
  addi t2, t2, 1
    80003350:	0385                	addi	t2,t2,1
/cva6/verif/sim/../tests/custom/templates/test_template.S:446
  addi t3, t3, 1
    80003352:	0e05                	addi	t3,t3,1
/cva6/verif/sim/../tests/custom/templates/test_template.S:447
  addi t4, t4, 1
    80003354:	0e85                	addi	t4,t4,1
/cva6/verif/sim/../tests/custom/templates/test_template.S:448
  addi t5, t5, 1
    80003356:	0f05                	addi	t5,t5,1
/cva6/verif/sim/../tests/custom/templates/test_template.S:449
  addi t1, t1, 1
    80003358:	0305                	addi	t1,t1,1
/cva6/verif/sim/../tests/custom/templates/test_template.S:450
  addi t2, t2, 1
    8000335a:	0385                	addi	t2,t2,1
/cva6/verif/sim/../tests/custom/templates/test_template.S:451
  addi t3, t3, 1
    8000335c:	0e05                	addi	t3,t3,1
/cva6/verif/sim/../tests/custom/templates/test_template.S:452
  addi t4, t4, 1
    8000335e:	0e85                	addi	t4,t4,1
/cva6/verif/sim/../tests/custom/templates/test_template.S:453
  addi t5, t5, 1
    80003360:	0f05                	addi	t5,t5,1
/cva6/verif/sim/../tests/custom/templates/test_template.S:454
  addi t1, t1, 1
    80003362:	0305                	addi	t1,t1,1
/cva6/verif/sim/../tests/custom/templates/test_template.S:455
  addi t2, t2, 1
    80003364:	0385                	addi	t2,t2,1
/cva6/verif/sim/../tests/custom/templates/test_template.S:456
  addi t3, t3, 1
    80003366:	0e05                	addi	t3,t3,1
/cva6/verif/sim/../tests/custom/templates/test_template.S:457
  addi t4, t4, 1
    80003368:	0e85                	addi	t4,t4,1
/cva6/verif/sim/../tests/custom/templates/test_template.S:458
  addi t5, t5, 1
    8000336a:	0f05                	addi	t5,t5,1
/cva6/verif/sim/../tests/custom/templates/test_template.S:459
  addi t1, t1, 1
    8000336c:	0305                	addi	t1,t1,1
/cva6/verif/sim/../tests/custom/templates/test_template.S:460
  addi t2, t2, 1
    8000336e:	0385                	addi	t2,t2,1
/cva6/verif/sim/../tests/custom/templates/test_template.S:461
  addi t3, t3, 1
    80003370:	0e05                	addi	t3,t3,1
/cva6/verif/sim/../tests/custom/templates/test_template.S:462
  addi t4, t4, 1
    80003372:	0e85                	addi	t4,t4,1
/cva6/verif/sim/../tests/custom/templates/test_template.S:463
  addi t5, t5, 1
    80003374:	0f05                	addi	t5,t5,1
/cva6/verif/sim/../tests/custom/templates/test_template.S:464
  addi t1, t1, 1
    80003376:	0305                	addi	t1,t1,1
/cva6/verif/sim/../tests/custom/templates/test_template.S:465
  addi t2, t2, 1
    80003378:	0385                	addi	t2,t2,1
/cva6/verif/sim/../tests/custom/templates/test_template.S:466
  addi t3, t3, 1
    8000337a:	0e05                	addi	t3,t3,1
/cva6/verif/sim/../tests/custom/templates/test_template.S:467
  addi t4, t4, 1
    8000337c:	0e85                	addi	t4,t4,1
/cva6/verif/sim/../tests/custom/templates/test_template.S:468
  addi t5, t5, 1
    8000337e:	0f05                	addi	t5,t5,1
/cva6/verif/sim/../tests/custom/templates/test_template.S:469
  addi t1, t1, 1
    80003380:	0305                	addi	t1,t1,1
/cva6/verif/sim/../tests/custom/templates/test_template.S:470
  addi t2, t2, 1
    80003382:	0385                	addi	t2,t2,1
/cva6/verif/sim/../tests/custom/templates/test_template.S:471
  addi t3, t3, 1
    80003384:	0e05                	addi	t3,t3,1
/cva6/verif/sim/../tests/custom/templates/test_template.S:472
  addi t4, t4, 1
    80003386:	0e85                	addi	t4,t4,1
/cva6/verif/sim/../tests/custom/templates/test_template.S:473
  addi t5, t5, 1
    80003388:	0f05                	addi	t5,t5,1
/cva6/verif/sim/../tests/custom/templates/test_template.S:474
  addi t1, t1, 1
    8000338a:	0305                	addi	t1,t1,1
/cva6/verif/sim/../tests/custom/templates/test_template.S:475
  addi t2, t2, 1
    8000338c:	0385                	addi	t2,t2,1
/cva6/verif/sim/../tests/custom/templates/test_template.S:476
  addi t3, t3, 1
    8000338e:	0e05                	addi	t3,t3,1
/cva6/verif/sim/../tests/custom/templates/test_template.S:477
  addi t4, t4, 1
    80003390:	0e85                	addi	t4,t4,1
/cva6/verif/sim/../tests/custom/templates/test_template.S:478
  addi t5, t5, 1
    80003392:	0f05                	addi	t5,t5,1
/cva6/verif/sim/../tests/custom/templates/test_template.S:479
  addi t1, t1, 1
    80003394:	0305                	addi	t1,t1,1
/cva6/verif/sim/../tests/custom/templates/test_template.S:480
  addi t2, t2, 1
    80003396:	0385                	addi	t2,t2,1
/cva6/verif/sim/../tests/custom/templates/test_template.S:481
  addi t3, t3, 1
    80003398:	0e05                	addi	t3,t3,1
/cva6/verif/sim/../tests/custom/templates/test_template.S:482
  addi t4, t4, 1
    8000339a:	0e85                	addi	t4,t4,1
/cva6/verif/sim/../tests/custom/templates/test_template.S:483
  addi t5, t5, 1
    8000339c:	0f05                	addi	t5,t5,1
/cva6/verif/sim/../tests/custom/templates/test_template.S:484
  addi t1, t1, 1
    8000339e:	0305                	addi	t1,t1,1
/cva6/verif/sim/../tests/custom/templates/test_template.S:485
  addi t2, t2, 1
    800033a0:	0385                	addi	t2,t2,1
/cva6/verif/sim/../tests/custom/templates/test_template.S:486
  addi t3, t3, 1
    800033a2:	0e05                	addi	t3,t3,1
/cva6/verif/sim/../tests/custom/templates/test_template.S:487
  addi t4, t4, 1
    800033a4:	0e85                	addi	t4,t4,1
/cva6/verif/sim/../tests/custom/templates/test_template.S:488
  addi t5, t5, 1
    800033a6:	0f05                	addi	t5,t5,1
/cva6/verif/sim/../tests/custom/templates/test_template.S:489
  addi t1, t1, 1
    800033a8:	0305                	addi	t1,t1,1
/cva6/verif/sim/../tests/custom/templates/test_template.S:490
  addi t2, t2, 1
    800033aa:	0385                	addi	t2,t2,1
/cva6/verif/sim/../tests/custom/templates/test_template.S:491
  addi t3, t3, 1
    800033ac:	0e05                	addi	t3,t3,1
/cva6/verif/sim/../tests/custom/templates/test_template.S:492
  addi t4, t4, 1
    800033ae:	0e85                	addi	t4,t4,1
/cva6/verif/sim/../tests/custom/templates/test_template.S:493
  addi t5, t5, 1
    800033b0:	0f05                	addi	t5,t5,1
/cva6/verif/sim/../tests/custom/templates/test_template.S:494
  addi t1, t1, 1
    800033b2:	0305                	addi	t1,t1,1
/cva6/verif/sim/../tests/custom/templates/test_template.S:495
  addi t2, t2, 1
    800033b4:	0385                	addi	t2,t2,1
/cva6/verif/sim/../tests/custom/templates/test_template.S:496
  addi t3, t3, 1
    800033b6:	0e05                	addi	t3,t3,1
/cva6/verif/sim/../tests/custom/templates/test_template.S:497
  addi t4, t4, 1
    800033b8:	0e85                	addi	t4,t4,1
/cva6/verif/sim/../tests/custom/templates/test_template.S:498
  addi t5, t5, 1
    800033ba:	0f05                	addi	t5,t5,1
/cva6/verif/sim/../tests/custom/templates/test_template.S:499
  addi t1, t1, 1
    800033bc:	0305                	addi	t1,t1,1
/cva6/verif/sim/../tests/custom/templates/test_template.S:500
  addi t2, t2, 1
    800033be:	0385                	addi	t2,t2,1
/cva6/verif/sim/../tests/custom/templates/test_template.S:501
  addi t3, t3, 1
    800033c0:	0e05                	addi	t3,t3,1
/cva6/verif/sim/../tests/custom/templates/test_template.S:502
  addi t4, t4, 1
    800033c2:	0e85                	addi	t4,t4,1
/cva6/verif/sim/../tests/custom/templates/test_template.S:503
  addi t5, t5, 1
    800033c4:	0f05                	addi	t5,t5,1
/cva6/verif/sim/../tests/custom/templates/test_template.S:504
  addi t1, t1, 1
    800033c6:	0305                	addi	t1,t1,1
/cva6/verif/sim/../tests/custom/templates/test_template.S:505
  addi t2, t2, 1
    800033c8:	0385                	addi	t2,t2,1
/cva6/verif/sim/../tests/custom/templates/test_template.S:506
  addi t3, t3, 1
    800033ca:	0e05                	addi	t3,t3,1
/cva6/verif/sim/../tests/custom/templates/test_template.S:507
  addi t4, t4, 1
    800033cc:	0e85                	addi	t4,t4,1
/cva6/verif/sim/../tests/custom/templates/test_template.S:508
  addi t5, t5, 1
    800033ce:	0f05                	addi	t5,t5,1
/cva6/verif/sim/../tests/custom/templates/test_template.S:509
  addi t1, t1, 1
    800033d0:	0305                	addi	t1,t1,1
/cva6/verif/sim/../tests/custom/templates/test_template.S:510
  addi t2, t2, 1
    800033d2:	0385                	addi	t2,t2,1
/cva6/verif/sim/../tests/custom/templates/test_template.S:511
  addi t3, t3, 1
    800033d4:	0e05                	addi	t3,t3,1
/cva6/verif/sim/../tests/custom/templates/test_template.S:512
  addi t4, t4, 1
    800033d6:	0e85                	addi	t4,t4,1
/cva6/verif/sim/../tests/custom/templates/test_template.S:513
  addi t5, t5, 1
    800033d8:	0f05                	addi	t5,t5,1
/cva6/verif/sim/../tests/custom/templates/test_template.S:514
  addi t1, t1, 1
    800033da:	0305                	addi	t1,t1,1
/cva6/verif/sim/../tests/custom/templates/test_template.S:515
  addi t2, t2, 1
    800033dc:	0385                	addi	t2,t2,1
/cva6/verif/sim/../tests/custom/templates/test_template.S:516
  addi t3, t3, 1
    800033de:	0e05                	addi	t3,t3,1
/cva6/verif/sim/../tests/custom/templates/test_template.S:517
  addi t4, t4, 1
    800033e0:	0e85                	addi	t4,t4,1
/cva6/verif/sim/../tests/custom/templates/test_template.S:518
  addi t5, t5, 1
    800033e2:	0f05                	addi	t5,t5,1
/cva6/verif/sim/../tests/custom/templates/test_template.S:519
  addi t1, t1, 1
    800033e4:	0305                	addi	t1,t1,1
/cva6/verif/sim/../tests/custom/templates/test_template.S:520
  addi t2, t2, 1
    800033e6:	0385                	addi	t2,t2,1
/cva6/verif/sim/../tests/custom/templates/test_template.S:521
  addi t3, t3, 1
    800033e8:	0e05                	addi	t3,t3,1
/cva6/verif/sim/../tests/custom/templates/test_template.S:522
  addi t4, t4, 1
    800033ea:	0e85                	addi	t4,t4,1
/cva6/verif/sim/../tests/custom/templates/test_template.S:523
  addi t5, t5, 1
    800033ec:	0f05                	addi	t5,t5,1
/cva6/verif/sim/../tests/custom/templates/test_template.S:524
  addi t1, t1, 1
    800033ee:	0305                	addi	t1,t1,1
/cva6/verif/sim/../tests/custom/templates/test_template.S:525
  addi t2, t2, 1
    800033f0:	0385                	addi	t2,t2,1
/cva6/verif/sim/../tests/custom/templates/test_template.S:526
  addi t3, t3, 1
    800033f2:	0e05                	addi	t3,t3,1
/cva6/verif/sim/../tests/custom/templates/test_template.S:527
  addi t4, t4, 1
    800033f4:	0e85                	addi	t4,t4,1
/cva6/verif/sim/../tests/custom/templates/test_template.S:528
  addi t5, t5, 1
    800033f6:	0f05                	addi	t5,t5,1
/cva6/verif/sim/../tests/custom/templates/test_template.S:529
  addi t1, t1, 1
    800033f8:	0305                	addi	t1,t1,1
/cva6/verif/sim/../tests/custom/templates/test_template.S:530
  addi t2, t2, 1
    800033fa:	0385                	addi	t2,t2,1
/cva6/verif/sim/../tests/custom/templates/test_template.S:531
  addi t3, t3, 1
    800033fc:	0e05                	addi	t3,t3,1
/cva6/verif/sim/../tests/custom/templates/test_template.S:532
  addi t4, t4, 1
    800033fe:	0e85                	addi	t4,t4,1
/cva6/verif/sim/../tests/custom/templates/test_template.S:533
  addi t5, t5, 1
    80003400:	0f05                	addi	t5,t5,1
/cva6/verif/sim/../tests/custom/templates/test_template.S:534
  addi t1, t1, 1
    80003402:	0305                	addi	t1,t1,1
/cva6/verif/sim/../tests/custom/templates/test_template.S:535
  addi t2, t2, 1
    80003404:	0385                	addi	t2,t2,1
/cva6/verif/sim/../tests/custom/templates/test_template.S:536
  addi t3, t3, 1
    80003406:	0e05                	addi	t3,t3,1
/cva6/verif/sim/../tests/custom/templates/test_template.S:537
  addi t4, t4, 1
    80003408:	0e85                	addi	t4,t4,1
/cva6/verif/sim/../tests/custom/templates/test_template.S:538
  addi t5, t5, 1
    8000340a:	0f05                	addi	t5,t5,1
/cva6/verif/sim/../tests/custom/templates/test_template.S:539
  addi t1, t1, 1
    8000340c:	0305                	addi	t1,t1,1
/cva6/verif/sim/../tests/custom/templates/test_template.S:540
  addi t2, t2, 1
    8000340e:	0385                	addi	t2,t2,1
/cva6/verif/sim/../tests/custom/templates/test_template.S:541
  addi t3, t3, 1
    80003410:	0e05                	addi	t3,t3,1
/cva6/verif/sim/../tests/custom/templates/test_template.S:542
  addi t4, t4, 1
    80003412:	0e85                	addi	t4,t4,1
/cva6/verif/sim/../tests/custom/templates/test_template.S:543
  addi t5, t5, 1
    80003414:	0f05                	addi	t5,t5,1
/cva6/verif/sim/../tests/custom/templates/test_template.S:544
  addi t1, t1, 1
    80003416:	0305                	addi	t1,t1,1
/cva6/verif/sim/../tests/custom/templates/test_template.S:545
  addi t2, t2, 1
    80003418:	0385                	addi	t2,t2,1
/cva6/verif/sim/../tests/custom/templates/test_template.S:546
  addi t3, t3, 1
    8000341a:	0e05                	addi	t3,t3,1
/cva6/verif/sim/../tests/custom/templates/test_template.S:547
  addi t4, t4, 1
    8000341c:	0e85                	addi	t4,t4,1
/cva6/verif/sim/../tests/custom/templates/test_template.S:548
  addi t5, t5, 1
    8000341e:	0f05                	addi	t5,t5,1
/cva6/verif/sim/../tests/custom/templates/test_template.S:549
  addi t1, t1, 1
    80003420:	0305                	addi	t1,t1,1
/cva6/verif/sim/../tests/custom/templates/test_template.S:550
  addi t2, t2, 1
    80003422:	0385                	addi	t2,t2,1
/cva6/verif/sim/../tests/custom/templates/test_template.S:551
  addi t3, t3, 1
    80003424:	0e05                	addi	t3,t3,1
/cva6/verif/sim/../tests/custom/templates/test_template.S:552
  addi t4, t4, 1
    80003426:	0e85                	addi	t4,t4,1
/cva6/verif/sim/../tests/custom/templates/test_template.S:553
  addi t5, t5, 1
    80003428:	0f05                	addi	t5,t5,1
/cva6/verif/sim/../tests/custom/templates/test_template.S:554
  addi t1, t1, 1
    8000342a:	0305                	addi	t1,t1,1
/cva6/verif/sim/../tests/custom/templates/test_template.S:555
  addi t2, t2, 1
    8000342c:	0385                	addi	t2,t2,1
/cva6/verif/sim/../tests/custom/templates/test_template.S:556
  addi t3, t3, 1
    8000342e:	0e05                	addi	t3,t3,1
/cva6/verif/sim/../tests/custom/templates/test_template.S:557
  addi t4, t4, 1
    80003430:	0e85                	addi	t4,t4,1
/cva6/verif/sim/../tests/custom/templates/test_template.S:558
  addi t5, t5, 1
    80003432:	0f05                	addi	t5,t5,1
/cva6/verif/sim/../tests/custom/templates/test_template.S:559
  addi t1, t1, 1
    80003434:	0305                	addi	t1,t1,1
/cva6/verif/sim/../tests/custom/templates/test_template.S:560
  addi t2, t2, 1
    80003436:	0385                	addi	t2,t2,1
/cva6/verif/sim/../tests/custom/templates/test_template.S:561
  addi t3, t3, 1
    80003438:	0e05                	addi	t3,t3,1
/cva6/verif/sim/../tests/custom/templates/test_template.S:562
  addi t4, t4, 1
    8000343a:	0e85                	addi	t4,t4,1
/cva6/verif/sim/../tests/custom/templates/test_template.S:563
  addi t5, t5, 1
    8000343c:	0f05                	addi	t5,t5,1
/cva6/verif/sim/../tests/custom/templates/test_template.S:564
  addi t1, t1, 1
    8000343e:	0305                	addi	t1,t1,1
/cva6/verif/sim/../tests/custom/templates/test_template.S:565
  addi t2, t2, 1
    80003440:	0385                	addi	t2,t2,1
/cva6/verif/sim/../tests/custom/templates/test_template.S:566
  addi t3, t3, 1
    80003442:	0e05                	addi	t3,t3,1
/cva6/verif/sim/../tests/custom/templates/test_template.S:567
  addi t4, t4, 1
    80003444:	0e85                	addi	t4,t4,1
/cva6/verif/sim/../tests/custom/templates/test_template.S:568
  addi t5, t5, 1
    80003446:	0f05                	addi	t5,t5,1
/cva6/verif/sim/../tests/custom/templates/test_template.S:569
  addi t1, t1, 1
    80003448:	0305                	addi	t1,t1,1
/cva6/verif/sim/../tests/custom/templates/test_template.S:570
  addi t2, t2, 1
    8000344a:	0385                	addi	t2,t2,1
/cva6/verif/sim/../tests/custom/templates/test_template.S:571
  addi t3, t3, 1
    8000344c:	0e05                	addi	t3,t3,1
/cva6/verif/sim/../tests/custom/templates/test_template.S:572
  addi t4, t4, 1
    8000344e:	0e85                	addi	t4,t4,1
/cva6/verif/sim/../tests/custom/templates/test_template.S:573
  addi t5, t5, 1
    80003450:	0f05                	addi	t5,t5,1
/cva6/verif/sim/../tests/custom/templates/test_template.S:574
  addi t1, t1, 1
    80003452:	0305                	addi	t1,t1,1
/cva6/verif/sim/../tests/custom/templates/test_template.S:575
  addi t2, t2, 1
    80003454:	0385                	addi	t2,t2,1
/cva6/verif/sim/../tests/custom/templates/test_template.S:576
  addi t3, t3, 1
    80003456:	0e05                	addi	t3,t3,1
/cva6/verif/sim/../tests/custom/templates/test_template.S:577
  addi t4, t4, 1
    80003458:	0e85                	addi	t4,t4,1
/cva6/verif/sim/../tests/custom/templates/test_template.S:578
  addi t5, t5, 1
    8000345a:	0f05                	addi	t5,t5,1
/cva6/verif/sim/../tests/custom/templates/test_template.S:579
  addi t1, t1, 1
    8000345c:	0305                	addi	t1,t1,1
/cva6/verif/sim/../tests/custom/templates/test_template.S:580
  addi t2, t2, 1
    8000345e:	0385                	addi	t2,t2,1
/cva6/verif/sim/../tests/custom/templates/test_template.S:581
  addi t3, t3, 1
    80003460:	0e05                	addi	t3,t3,1
/cva6/verif/sim/../tests/custom/templates/test_template.S:582
  addi t4, t4, 1
    80003462:	0e85                	addi	t4,t4,1
/cva6/verif/sim/../tests/custom/templates/test_template.S:583
  addi t5, t5, 1
    80003464:	0f05                	addi	t5,t5,1
/cva6/verif/sim/../tests/custom/templates/test_template.S:584
  addi t1, t1, 1
    80003466:	0305                	addi	t1,t1,1
/cva6/verif/sim/../tests/custom/templates/test_template.S:585
  addi t2, t2, 1
    80003468:	0385                	addi	t2,t2,1
/cva6/verif/sim/../tests/custom/templates/test_template.S:586
  addi t3, t3, 1
    8000346a:	0e05                	addi	t3,t3,1
/cva6/verif/sim/../tests/custom/templates/test_template.S:587
  addi t4, t4, 1
    8000346c:	0e85                	addi	t4,t4,1
/cva6/verif/sim/../tests/custom/templates/test_template.S:588
  addi t5, t5, 1
    8000346e:	0f05                	addi	t5,t5,1
/cva6/verif/sim/../tests/custom/templates/test_template.S:589
  addi t1, t1, 1
    80003470:	0305                	addi	t1,t1,1
/cva6/verif/sim/../tests/custom/templates/test_template.S:590
  addi t2, t2, 1
    80003472:	0385                	addi	t2,t2,1
/cva6/verif/sim/../tests/custom/templates/test_template.S:591
  addi t3, t3, 1
    80003474:	0e05                	addi	t3,t3,1
/cva6/verif/sim/../tests/custom/templates/test_template.S:592
  addi t4, t4, 1
    80003476:	0e85                	addi	t4,t4,1
/cva6/verif/sim/../tests/custom/templates/test_template.S:593
  addi t5, t5, 1
    80003478:	0f05                	addi	t5,t5,1
/cva6/verif/sim/../tests/custom/templates/test_template.S:594
  addi t1, t1, 1
    8000347a:	0305                	addi	t1,t1,1
/cva6/verif/sim/../tests/custom/templates/test_template.S:595
  addi t2, t2, 1
    8000347c:	0385                	addi	t2,t2,1
/cva6/verif/sim/../tests/custom/templates/test_template.S:596
  addi t3, t3, 1
    8000347e:	0e05                	addi	t3,t3,1
/cva6/verif/sim/../tests/custom/templates/test_template.S:597
  addi t4, t4, 1
    80003480:	0e85                	addi	t4,t4,1
/cva6/verif/sim/../tests/custom/templates/test_template.S:598
  addi t5, t5, 1
    80003482:	0f05                	addi	t5,t5,1
/cva6/verif/sim/../tests/custom/templates/test_template.S:599
  addi t1, t1, 1
    80003484:	0305                	addi	t1,t1,1
/cva6/verif/sim/../tests/custom/templates/test_template.S:600
  addi t2, t2, 1
    80003486:	0385                	addi	t2,t2,1
/cva6/verif/sim/../tests/custom/templates/test_template.S:601
  addi t3, t3, 1
    80003488:	0e05                	addi	t3,t3,1
/cva6/verif/sim/../tests/custom/templates/test_template.S:602
  addi t4, t4, 1
    8000348a:	0e85                	addi	t4,t4,1
/cva6/verif/sim/../tests/custom/templates/test_template.S:603
  addi t5, t5, 1
    8000348c:	0f05                	addi	t5,t5,1
/cva6/verif/sim/../tests/custom/templates/test_template.S:604
  addi t1, t1, 1
    8000348e:	0305                	addi	t1,t1,1
/cva6/verif/sim/../tests/custom/templates/test_template.S:605
  addi t2, t2, 1
    80003490:	0385                	addi	t2,t2,1
/cva6/verif/sim/../tests/custom/templates/test_template.S:606
  addi t3, t3, 1
    80003492:	0e05                	addi	t3,t3,1
/cva6/verif/sim/../tests/custom/templates/test_template.S:607
  addi t4, t4, 1
    80003494:	0e85                	addi	t4,t4,1
/cva6/verif/sim/../tests/custom/templates/test_template.S:608
  addi t5, t5, 1
    80003496:	0f05                	addi	t5,t5,1
/cva6/verif/sim/../tests/custom/templates/test_template.S:609
  addi t1, t1, 1
    80003498:	0305                	addi	t1,t1,1
/cva6/verif/sim/../tests/custom/templates/test_template.S:610
  addi t2, t2, 1
    8000349a:	0385                	addi	t2,t2,1
/cva6/verif/sim/../tests/custom/templates/test_template.S:611
  addi t3, t3, 1
    8000349c:	0e05                	addi	t3,t3,1
/cva6/verif/sim/../tests/custom/templates/test_template.S:612
  addi t4, t4, 1
    8000349e:	0e85                	addi	t4,t4,1
/cva6/verif/sim/../tests/custom/templates/test_template.S:613
  addi t5, t5, 1
    800034a0:	0f05                	addi	t5,t5,1
/cva6/verif/sim/../tests/custom/templates/test_template.S:614
  addi t1, t1, 1
    800034a2:	0305                	addi	t1,t1,1
/cva6/verif/sim/../tests/custom/templates/test_template.S:615
  addi t2, t2, 1
    800034a4:	0385                	addi	t2,t2,1
/cva6/verif/sim/../tests/custom/templates/test_template.S:616
  addi t3, t3, 1
    800034a6:	0e05                	addi	t3,t3,1
/cva6/verif/sim/../tests/custom/templates/test_template.S:617
  addi t4, t4, 1
    800034a8:	0e85                	addi	t4,t4,1
/cva6/verif/sim/../tests/custom/templates/test_template.S:618
  addi t5, t5, 1
    800034aa:	0f05                	addi	t5,t5,1
/cva6/verif/sim/../tests/custom/templates/test_template.S:619
  addi t1, t1, 1
    800034ac:	0305                	addi	t1,t1,1
/cva6/verif/sim/../tests/custom/templates/test_template.S:620
  addi t2, t2, 1
    800034ae:	0385                	addi	t2,t2,1
/cva6/verif/sim/../tests/custom/templates/test_template.S:621
  addi t3, t3, 1
    800034b0:	0e05                	addi	t3,t3,1
/cva6/verif/sim/../tests/custom/templates/test_template.S:622
  addi t4, t4, 1
    800034b2:	0e85                	addi	t4,t4,1
/cva6/verif/sim/../tests/custom/templates/test_template.S:623
  addi t5, t5, 1
    800034b4:	0f05                	addi	t5,t5,1
/cva6/verif/sim/../tests/custom/templates/test_template.S:624
  addi t1, t1, 1
    800034b6:	0305                	addi	t1,t1,1
/cva6/verif/sim/../tests/custom/templates/test_template.S:625
  addi t2, t2, 1
    800034b8:	0385                	addi	t2,t2,1
/cva6/verif/sim/../tests/custom/templates/test_template.S:626
  addi t3, t3, 1
    800034ba:	0e05                	addi	t3,t3,1
/cva6/verif/sim/../tests/custom/templates/test_template.S:627
  addi t4, t4, 1
    800034bc:	0e85                	addi	t4,t4,1
/cva6/verif/sim/../tests/custom/templates/test_template.S:628
  addi t5, t5, 1
    800034be:	0f05                	addi	t5,t5,1
/cva6/verif/sim/../tests/custom/templates/test_template.S:629
  addi t1, t1, 1
    800034c0:	0305                	addi	t1,t1,1
/cva6/verif/sim/../tests/custom/templates/test_template.S:630
  addi t2, t2, 1
    800034c2:	0385                	addi	t2,t2,1
/cva6/verif/sim/../tests/custom/templates/test_template.S:631
  addi t3, t3, 1
    800034c4:	0e05                	addi	t3,t3,1
/cva6/verif/sim/../tests/custom/templates/test_template.S:632
  addi t4, t4, 1
    800034c6:	0e85                	addi	t4,t4,1
/cva6/verif/sim/../tests/custom/templates/test_template.S:633
  addi t5, t5, 1
    800034c8:	0f05                	addi	t5,t5,1
/cva6/verif/sim/../tests/custom/templates/test_template.S:634
  addi t1, t1, 1
    800034ca:	0305                	addi	t1,t1,1
/cva6/verif/sim/../tests/custom/templates/test_template.S:635
  addi t2, t2, 1
    800034cc:	0385                	addi	t2,t2,1
/cva6/verif/sim/../tests/custom/templates/test_template.S:636
  addi t3, t3, 1
    800034ce:	0e05                	addi	t3,t3,1
/cva6/verif/sim/../tests/custom/templates/test_template.S:637
  addi t4, t4, 1
    800034d0:	0e85                	addi	t4,t4,1
/cva6/verif/sim/../tests/custom/templates/test_template.S:638
  addi t5, t5, 1
    800034d2:	0f05                	addi	t5,t5,1
/cva6/verif/sim/../tests/custom/templates/test_template.S:639
  addi t1, t1, 1
    800034d4:	0305                	addi	t1,t1,1
/cva6/verif/sim/../tests/custom/templates/test_template.S:640
  addi t2, t2, 1
    800034d6:	0385                	addi	t2,t2,1
/cva6/verif/sim/../tests/custom/templates/test_template.S:641
  addi t3, t3, 1
    800034d8:	0e05                	addi	t3,t3,1
/cva6/verif/sim/../tests/custom/templates/test_template.S:642
  addi t4, t4, 1
    800034da:	0e85                	addi	t4,t4,1
/cva6/verif/sim/../tests/custom/templates/test_template.S:643
  addi t5, t5, 1
    800034dc:	0f05                	addi	t5,t5,1
/cva6/verif/sim/../tests/custom/templates/test_template.S:644
  addi t1, t1, 1
    800034de:	0305                	addi	t1,t1,1
/cva6/verif/sim/../tests/custom/templates/test_template.S:645
  addi t2, t2, 1
    800034e0:	0385                	addi	t2,t2,1
/cva6/verif/sim/../tests/custom/templates/test_template.S:646
  addi t3, t3, 1
    800034e2:	0e05                	addi	t3,t3,1
/cva6/verif/sim/../tests/custom/templates/test_template.S:647
  addi t4, t4, 1
    800034e4:	0e85                	addi	t4,t4,1
/cva6/verif/sim/../tests/custom/templates/test_template.S:648
  addi t5, t5, 1
    800034e6:	0f05                	addi	t5,t5,1
/cva6/verif/sim/../tests/custom/templates/test_template.S:649
  addi t1, t1, 1
    800034e8:	0305                	addi	t1,t1,1
/cva6/verif/sim/../tests/custom/templates/test_template.S:650
  addi t2, t2, 1
    800034ea:	0385                	addi	t2,t2,1
/cva6/verif/sim/../tests/custom/templates/test_template.S:651
  addi t3, t3, 1
    800034ec:	0e05                	addi	t3,t3,1
/cva6/verif/sim/../tests/custom/templates/test_template.S:652
  addi t4, t4, 1
    800034ee:	0e85                	addi	t4,t4,1
/cva6/verif/sim/../tests/custom/templates/test_template.S:653
  addi t5, t5, 1
    800034f0:	0f05                	addi	t5,t5,1
/cva6/verif/sim/../tests/custom/templates/test_template.S:654
  addi t1, t1, 1
    800034f2:	0305                	addi	t1,t1,1
/cva6/verif/sim/../tests/custom/templates/test_template.S:655
  addi t2, t2, 1
    800034f4:	0385                	addi	t2,t2,1
/cva6/verif/sim/../tests/custom/templates/test_template.S:656
  addi t3, t3, 1
    800034f6:	0e05                	addi	t3,t3,1
/cva6/verif/sim/../tests/custom/templates/test_template.S:657
  addi t4, t4, 1
    800034f8:	0e85                	addi	t4,t4,1
/cva6/verif/sim/../tests/custom/templates/test_template.S:658
  addi t5, t5, 1
    800034fa:	0f05                	addi	t5,t5,1
/cva6/verif/sim/../tests/custom/templates/test_template.S:659
  addi t1, t1, 1
    800034fc:	0305                	addi	t1,t1,1
/cva6/verif/sim/../tests/custom/templates/test_template.S:660
  addi t2, t2, 1
    800034fe:	0385                	addi	t2,t2,1
/cva6/verif/sim/../tests/custom/templates/test_template.S:661
  addi t3, t3, 1
    80003500:	0e05                	addi	t3,t3,1
/cva6/verif/sim/../tests/custom/templates/test_template.S:662
  addi t4, t4, 1
    80003502:	0e85                	addi	t4,t4,1
/cva6/verif/sim/../tests/custom/templates/test_template.S:663
  addi t5, t5, 1
    80003504:	0f05                	addi	t5,t5,1
/cva6/verif/sim/../tests/custom/templates/test_template.S:664
  addi t1, t1, 1
    80003506:	0305                	addi	t1,t1,1
/cva6/verif/sim/../tests/custom/templates/test_template.S:665
  addi t2, t2, 1
    80003508:	0385                	addi	t2,t2,1
/cva6/verif/sim/../tests/custom/templates/test_template.S:666
  addi t3, t3, 1
    8000350a:	0e05                	addi	t3,t3,1
/cva6/verif/sim/../tests/custom/templates/test_template.S:667
  addi t4, t4, 1
    8000350c:	0e85                	addi	t4,t4,1
/cva6/verif/sim/../tests/custom/templates/test_template.S:668
  addi t5, t5, 1
    8000350e:	0f05                	addi	t5,t5,1
/cva6/verif/sim/../tests/custom/templates/test_template.S:669
  addi t1, t1, 1
    80003510:	0305                	addi	t1,t1,1
/cva6/verif/sim/../tests/custom/templates/test_template.S:670
  addi t2, t2, 1
    80003512:	0385                	addi	t2,t2,1
/cva6/verif/sim/../tests/custom/templates/test_template.S:671
  addi t3, t3, 1
    80003514:	0e05                	addi	t3,t3,1
/cva6/verif/sim/../tests/custom/templates/test_template.S:672
  addi t4, t4, 1
    80003516:	0e85                	addi	t4,t4,1
/cva6/verif/sim/../tests/custom/templates/test_template.S:673
  addi t5, t5, 1
    80003518:	0f05                	addi	t5,t5,1
/cva6/verif/sim/../tests/custom/templates/test_template.S:674
  addi t1, t1, 1
    8000351a:	0305                	addi	t1,t1,1
/cva6/verif/sim/../tests/custom/templates/test_template.S:675
  addi t2, t2, 1
    8000351c:	0385                	addi	t2,t2,1
/cva6/verif/sim/../tests/custom/templates/test_template.S:676
  addi t3, t3, 1
    8000351e:	0e05                	addi	t3,t3,1
/cva6/verif/sim/../tests/custom/templates/test_template.S:677
  addi t4, t4, 1
    80003520:	0e85                	addi	t4,t4,1
/cva6/verif/sim/../tests/custom/templates/test_template.S:678
  addi t5, t5, 1
    80003522:	0f05                	addi	t5,t5,1
/cva6/verif/sim/../tests/custom/templates/test_template.S:679
  addi t1, t1, 1
    80003524:	0305                	addi	t1,t1,1
/cva6/verif/sim/../tests/custom/templates/test_template.S:680
  addi t2, t2, 1
    80003526:	0385                	addi	t2,t2,1
/cva6/verif/sim/../tests/custom/templates/test_template.S:681
  addi t3, t3, 1
    80003528:	0e05                	addi	t3,t3,1
/cva6/verif/sim/../tests/custom/templates/test_template.S:682
  addi t4, t4, 1
    8000352a:	0e85                	addi	t4,t4,1
/cva6/verif/sim/../tests/custom/templates/test_template.S:683
  addi t5, t5, 1
    8000352c:	0f05                	addi	t5,t5,1
/cva6/verif/sim/../tests/custom/templates/test_template.S:684
  addi t1, t1, 1
    8000352e:	0305                	addi	t1,t1,1
/cva6/verif/sim/../tests/custom/templates/test_template.S:685
  addi t2, t2, 1
    80003530:	0385                	addi	t2,t2,1
/cva6/verif/sim/../tests/custom/templates/test_template.S:686
  addi t3, t3, 1
    80003532:	0e05                	addi	t3,t3,1
/cva6/verif/sim/../tests/custom/templates/test_template.S:687
  addi t4, t4, 1
    80003534:	0e85                	addi	t4,t4,1
/cva6/verif/sim/../tests/custom/templates/test_template.S:688
  addi t5, t5, 1
    80003536:	0f05                	addi	t5,t5,1
/cva6/verif/sim/../tests/custom/templates/test_template.S:689
  addi t1, t1, 1
    80003538:	0305                	addi	t1,t1,1
/cva6/verif/sim/../tests/custom/templates/test_template.S:690
  addi t2, t2, 1
    8000353a:	0385                	addi	t2,t2,1
/cva6/verif/sim/../tests/custom/templates/test_template.S:691
  addi t3, t3, 1
    8000353c:	0e05                	addi	t3,t3,1
/cva6/verif/sim/../tests/custom/templates/test_template.S:692
  addi t4, t4, 1
    8000353e:	0e85                	addi	t4,t4,1
/cva6/verif/sim/../tests/custom/templates/test_template.S:693
  addi t5, t5, 1
    80003540:	0f05                	addi	t5,t5,1
/cva6/verif/sim/../tests/custom/templates/test_template.S:694
  addi t1, t1, 1
    80003542:	0305                	addi	t1,t1,1
/cva6/verif/sim/../tests/custom/templates/test_template.S:695
  addi t2, t2, 1
    80003544:	0385                	addi	t2,t2,1
/cva6/verif/sim/../tests/custom/templates/test_template.S:696
  addi t3, t3, 1
    80003546:	0e05                	addi	t3,t3,1
/cva6/verif/sim/../tests/custom/templates/test_template.S:697
  addi t4, t4, 1
    80003548:	0e85                	addi	t4,t4,1
/cva6/verif/sim/../tests/custom/templates/test_template.S:698
  addi t5, t5, 1
    8000354a:	0f05                	addi	t5,t5,1
/cva6/verif/sim/../tests/custom/templates/test_template.S:699
  addi t1, t1, 1
    8000354c:	0305                	addi	t1,t1,1
/cva6/verif/sim/../tests/custom/templates/test_template.S:700
  addi t2, t2, 1
    8000354e:	0385                	addi	t2,t2,1
/cva6/verif/sim/../tests/custom/templates/test_template.S:701
  addi t3, t3, 1
    80003550:	0e05                	addi	t3,t3,1
/cva6/verif/sim/../tests/custom/templates/test_template.S:702
  addi t4, t4, 1
    80003552:	0e85                	addi	t4,t4,1
/cva6/verif/sim/../tests/custom/templates/test_template.S:703
  addi t5, t5, 1
    80003554:	0f05                	addi	t5,t5,1
/cva6/verif/sim/../tests/custom/templates/test_template.S:704
  addi t1, t1, 1
    80003556:	0305                	addi	t1,t1,1
/cva6/verif/sim/../tests/custom/templates/test_template.S:705
  addi t2, t2, 1
    80003558:	0385                	addi	t2,t2,1
/cva6/verif/sim/../tests/custom/templates/test_template.S:706
  addi t3, t3, 1
    8000355a:	0e05                	addi	t3,t3,1
/cva6/verif/sim/../tests/custom/templates/test_template.S:707
  addi t4, t4, 1
    8000355c:	0e85                	addi	t4,t4,1
/cva6/verif/sim/../tests/custom/templates/test_template.S:708
  addi t5, t5, 1
    8000355e:	0f05                	addi	t5,t5,1
/cva6/verif/sim/../tests/custom/templates/test_template.S:709
  addi t1, t1, 1
    80003560:	0305                	addi	t1,t1,1
/cva6/verif/sim/../tests/custom/templates/test_template.S:710
  addi t2, t2, 1
    80003562:	0385                	addi	t2,t2,1
/cva6/verif/sim/../tests/custom/templates/test_template.S:711
  addi t3, t3, 1
    80003564:	0e05                	addi	t3,t3,1
/cva6/verif/sim/../tests/custom/templates/test_template.S:712
  addi t4, t4, 1
    80003566:	0e85                	addi	t4,t4,1
/cva6/verif/sim/../tests/custom/templates/test_template.S:713
  addi t5, t5, 1
    80003568:	0f05                	addi	t5,t5,1
/cva6/verif/sim/../tests/custom/templates/test_template.S:714
  addi t1, t1, 1
    8000356a:	0305                	addi	t1,t1,1
/cva6/verif/sim/../tests/custom/templates/test_template.S:715
  addi t2, t2, 1
    8000356c:	0385                	addi	t2,t2,1
/cva6/verif/sim/../tests/custom/templates/test_template.S:716
  addi t3, t3, 1
    8000356e:	0e05                	addi	t3,t3,1
/cva6/verif/sim/../tests/custom/templates/test_template.S:717
  addi t4, t4, 1
    80003570:	0e85                	addi	t4,t4,1
/cva6/verif/sim/../tests/custom/templates/test_template.S:718
  addi t5, t5, 1
    80003572:	0f05                	addi	t5,t5,1
/cva6/verif/sim/../tests/custom/templates/test_template.S:719
  addi t1, t1, 1
    80003574:	0305                	addi	t1,t1,1
/cva6/verif/sim/../tests/custom/templates/test_template.S:720
  addi t2, t2, 1
    80003576:	0385                	addi	t2,t2,1
/cva6/verif/sim/../tests/custom/templates/test_template.S:721
  addi t3, t3, 1
    80003578:	0e05                	addi	t3,t3,1
/cva6/verif/sim/../tests/custom/templates/test_template.S:722
  addi t4, t4, 1
    8000357a:	0e85                	addi	t4,t4,1
/cva6/verif/sim/../tests/custom/templates/test_template.S:723
  addi t5, t5, 1
    8000357c:	0f05                	addi	t5,t5,1
/cva6/verif/sim/../tests/custom/templates/test_template.S:724
  addi t1, t1, 1
    8000357e:	0305                	addi	t1,t1,1
/cva6/verif/sim/../tests/custom/templates/test_template.S:725
  addi t2, t2, 1
    80003580:	0385                	addi	t2,t2,1
/cva6/verif/sim/../tests/custom/templates/test_template.S:726
  addi t3, t3, 1
    80003582:	0e05                	addi	t3,t3,1
/cva6/verif/sim/../tests/custom/templates/test_template.S:727
  addi t4, t4, 1
    80003584:	0e85                	addi	t4,t4,1
/cva6/verif/sim/../tests/custom/templates/test_template.S:728
  addi t5, t5, 1
    80003586:	0f05                	addi	t5,t5,1
/cva6/verif/sim/../tests/custom/templates/test_template.S:729
  addi t1, t1, 1
    80003588:	0305                	addi	t1,t1,1
/cva6/verif/sim/../tests/custom/templates/test_template.S:730
  addi t2, t2, 1
    8000358a:	0385                	addi	t2,t2,1
/cva6/verif/sim/../tests/custom/templates/test_template.S:731
  addi t3, t3, 1
    8000358c:	0e05                	addi	t3,t3,1
/cva6/verif/sim/../tests/custom/templates/test_template.S:732
  addi t4, t4, 1
    8000358e:	0e85                	addi	t4,t4,1
/cva6/verif/sim/../tests/custom/templates/test_template.S:733
  addi t5, t5, 1
    80003590:	0f05                	addi	t5,t5,1
/cva6/verif/sim/../tests/custom/templates/test_template.S:734
  addi t1, t1, 1
    80003592:	0305                	addi	t1,t1,1
/cva6/verif/sim/../tests/custom/templates/test_template.S:735
  addi t2, t2, 1
    80003594:	0385                	addi	t2,t2,1
/cva6/verif/sim/../tests/custom/templates/test_template.S:736
  addi t3, t3, 1
    80003596:	0e05                	addi	t3,t3,1
/cva6/verif/sim/../tests/custom/templates/test_template.S:737
  addi t4, t4, 1
    80003598:	0e85                	addi	t4,t4,1
/cva6/verif/sim/../tests/custom/templates/test_template.S:738
  addi t5, t5, 1
    8000359a:	0f05                	addi	t5,t5,1
/cva6/verif/sim/../tests/custom/templates/test_template.S:739
  addi t1, t1, 1
    8000359c:	0305                	addi	t1,t1,1
/cva6/verif/sim/../tests/custom/templates/test_template.S:740
  addi t2, t2, 1
    8000359e:	0385                	addi	t2,t2,1
/cva6/verif/sim/../tests/custom/templates/test_template.S:741
  addi t3, t3, 1
    800035a0:	0e05                	addi	t3,t3,1
/cva6/verif/sim/../tests/custom/templates/test_template.S:742
  addi t4, t4, 1
    800035a2:	0e85                	addi	t4,t4,1
/cva6/verif/sim/../tests/custom/templates/test_template.S:743
  addi t5, t5, 1
    800035a4:	0f05                	addi	t5,t5,1
/cva6/verif/sim/../tests/custom/templates/test_template.S:744
  addi t1, t1, 1
    800035a6:	0305                	addi	t1,t1,1
/cva6/verif/sim/../tests/custom/templates/test_template.S:745
  addi t2, t2, 1
    800035a8:	0385                	addi	t2,t2,1
/cva6/verif/sim/../tests/custom/templates/test_template.S:746
  addi t3, t3, 1
    800035aa:	0e05                	addi	t3,t3,1
/cva6/verif/sim/../tests/custom/templates/test_template.S:747
  addi t4, t4, 1
    800035ac:	0e85                	addi	t4,t4,1
/cva6/verif/sim/../tests/custom/templates/test_template.S:748
  addi t5, t5, 1
    800035ae:	0f05                	addi	t5,t5,1
/cva6/verif/sim/../tests/custom/templates/test_template.S:749
  addi t1, t1, 1
    800035b0:	0305                	addi	t1,t1,1
/cva6/verif/sim/../tests/custom/templates/test_template.S:750
  addi t2, t2, 1
    800035b2:	0385                	addi	t2,t2,1
/cva6/verif/sim/../tests/custom/templates/test_template.S:751
  addi t3, t3, 1
    800035b4:	0e05                	addi	t3,t3,1
/cva6/verif/sim/../tests/custom/templates/test_template.S:752
  addi t4, t4, 1
    800035b6:	0e85                	addi	t4,t4,1
/cva6/verif/sim/../tests/custom/templates/test_template.S:753
  addi t5, t5, 1
    800035b8:	0f05                	addi	t5,t5,1
/cva6/verif/sim/../tests/custom/templates/test_template.S:754
  addi t1, t1, 1
    800035ba:	0305                	addi	t1,t1,1
/cva6/verif/sim/../tests/custom/templates/test_template.S:755
  addi t2, t2, 1
    800035bc:	0385                	addi	t2,t2,1
/cva6/verif/sim/../tests/custom/templates/test_template.S:756
  addi t3, t3, 1
    800035be:	0e05                	addi	t3,t3,1
/cva6/verif/sim/../tests/custom/templates/test_template.S:757
  addi t4, t4, 1
    800035c0:	0e85                	addi	t4,t4,1
/cva6/verif/sim/../tests/custom/templates/test_template.S:758
  addi t5, t5, 1
    800035c2:	0f05                	addi	t5,t5,1
/cva6/verif/sim/../tests/custom/templates/test_template.S:759
  addi t1, t1, 1
    800035c4:	0305                	addi	t1,t1,1
/cva6/verif/sim/../tests/custom/templates/test_template.S:760
  addi t2, t2, 1
    800035c6:	0385                	addi	t2,t2,1
/cva6/verif/sim/../tests/custom/templates/test_template.S:761
  addi t3, t3, 1
    800035c8:	0e05                	addi	t3,t3,1
/cva6/verif/sim/../tests/custom/templates/test_template.S:762
  addi t4, t4, 1
    800035ca:	0e85                	addi	t4,t4,1
/cva6/verif/sim/../tests/custom/templates/test_template.S:763
  addi t5, t5, 1
    800035cc:	0f05                	addi	t5,t5,1
/cva6/verif/sim/../tests/custom/templates/test_template.S:764
  addi t1, t1, 1
    800035ce:	0305                	addi	t1,t1,1
/cva6/verif/sim/../tests/custom/templates/test_template.S:765
  addi t2, t2, 1
    800035d0:	0385                	addi	t2,t2,1
/cva6/verif/sim/../tests/custom/templates/test_template.S:766
  addi t3, t3, 1
    800035d2:	0e05                	addi	t3,t3,1
/cva6/verif/sim/../tests/custom/templates/test_template.S:767
  addi t4, t4, 1
    800035d4:	0e85                	addi	t4,t4,1
/cva6/verif/sim/../tests/custom/templates/test_template.S:768
  addi t5, t5, 1
    800035d6:	0f05                	addi	t5,t5,1
/cva6/verif/sim/../tests/custom/templates/test_template.S:769
  addi t1, t1, 1
    800035d8:	0305                	addi	t1,t1,1
/cva6/verif/sim/../tests/custom/templates/test_template.S:770
  addi t2, t2, 1
    800035da:	0385                	addi	t2,t2,1
/cva6/verif/sim/../tests/custom/templates/test_template.S:771
  addi t3, t3, 1
    800035dc:	0e05                	addi	t3,t3,1
/cva6/verif/sim/../tests/custom/templates/test_template.S:772
  addi t4, t4, 1
    800035de:	0e85                	addi	t4,t4,1
/cva6/verif/sim/../tests/custom/templates/test_template.S:773
  addi t5, t5, 1
    800035e0:	0f05                	addi	t5,t5,1
/cva6/verif/sim/../tests/custom/templates/test_template.S:774
  addi t1, t1, 1
    800035e2:	0305                	addi	t1,t1,1
/cva6/verif/sim/../tests/custom/templates/test_template.S:775
  addi t2, t2, 1
    800035e4:	0385                	addi	t2,t2,1
/cva6/verif/sim/../tests/custom/templates/test_template.S:776
  addi t3, t3, 1
    800035e6:	0e05                	addi	t3,t3,1
/cva6/verif/sim/../tests/custom/templates/test_template.S:777
  addi t4, t4, 1
    800035e8:	0e85                	addi	t4,t4,1
/cva6/verif/sim/../tests/custom/templates/test_template.S:778
  addi t5, t5, 1
    800035ea:	0f05                	addi	t5,t5,1
/cva6/verif/sim/../tests/custom/templates/test_template.S:779
  addi t1, t1, 1
    800035ec:	0305                	addi	t1,t1,1
/cva6/verif/sim/../tests/custom/templates/test_template.S:780
  addi t2, t2, 1
    800035ee:	0385                	addi	t2,t2,1
/cva6/verif/sim/../tests/custom/templates/test_template.S:781
  addi t3, t3, 1
    800035f0:	0e05                	addi	t3,t3,1
/cva6/verif/sim/../tests/custom/templates/test_template.S:782
  addi t4, t4, 1
    800035f2:	0e85                	addi	t4,t4,1
/cva6/verif/sim/../tests/custom/templates/test_template.S:783
  addi t5, t5, 1
    800035f4:	0f05                	addi	t5,t5,1
/cva6/verif/sim/../tests/custom/templates/test_template.S:784
  addi t1, t1, 1
    800035f6:	0305                	addi	t1,t1,1
/cva6/verif/sim/../tests/custom/templates/test_template.S:785
  addi t2, t2, 1
    800035f8:	0385                	addi	t2,t2,1
/cva6/verif/sim/../tests/custom/templates/test_template.S:786
  addi t3, t3, 1
    800035fa:	0e05                	addi	t3,t3,1
/cva6/verif/sim/../tests/custom/templates/test_template.S:787
  addi t4, t4, 1
    800035fc:	0e85                	addi	t4,t4,1
/cva6/verif/sim/../tests/custom/templates/test_template.S:788
  addi t5, t5, 1
    800035fe:	0f05                	addi	t5,t5,1
/cva6/verif/sim/../tests/custom/templates/test_template.S:789
  addi t1, t1, 1
    80003600:	0305                	addi	t1,t1,1
/cva6/verif/sim/../tests/custom/templates/test_template.S:790
  addi t2, t2, 1
    80003602:	0385                	addi	t2,t2,1
/cva6/verif/sim/../tests/custom/templates/test_template.S:791
  addi t3, t3, 1
    80003604:	0e05                	addi	t3,t3,1
/cva6/verif/sim/../tests/custom/templates/test_template.S:792
  addi t4, t4, 1
    80003606:	0e85                	addi	t4,t4,1
/cva6/verif/sim/../tests/custom/templates/test_template.S:793
  addi t5, t5, 1
    80003608:	0f05                	addi	t5,t5,1
/cva6/verif/sim/../tests/custom/templates/test_template.S:794
  addi t1, t1, 1
    8000360a:	0305                	addi	t1,t1,1
/cva6/verif/sim/../tests/custom/templates/test_template.S:795
  addi t2, t2, 1
    8000360c:	0385                	addi	t2,t2,1
/cva6/verif/sim/../tests/custom/templates/test_template.S:796
  addi t3, t3, 1
    8000360e:	0e05                	addi	t3,t3,1
/cva6/verif/sim/../tests/custom/templates/test_template.S:797
  addi t4, t4, 1
    80003610:	0e85                	addi	t4,t4,1
/cva6/verif/sim/../tests/custom/templates/test_template.S:798
  addi t5, t5, 1
    80003612:	0f05                	addi	t5,t5,1
/cva6/verif/sim/../tests/custom/templates/test_template.S:799
  addi t1, t1, 1
    80003614:	0305                	addi	t1,t1,1
/cva6/verif/sim/../tests/custom/templates/test_template.S:800
  addi t2, t2, 1
    80003616:	0385                	addi	t2,t2,1
/cva6/verif/sim/../tests/custom/templates/test_template.S:801
  addi t3, t3, 1
    80003618:	0e05                	addi	t3,t3,1
/cva6/verif/sim/../tests/custom/templates/test_template.S:802
  addi t4, t4, 1
    8000361a:	0e85                	addi	t4,t4,1
/cva6/verif/sim/../tests/custom/templates/test_template.S:803
  addi t5, t5, 1
    8000361c:	0f05                	addi	t5,t5,1
/cva6/verif/sim/../tests/custom/templates/test_template.S:804
  addi t1, t1, 1
    8000361e:	0305                	addi	t1,t1,1
/cva6/verif/sim/../tests/custom/templates/test_template.S:805
  addi t2, t2, 1
    80003620:	0385                	addi	t2,t2,1
/cva6/verif/sim/../tests/custom/templates/test_template.S:806
  addi t3, t3, 1
    80003622:	0e05                	addi	t3,t3,1
/cva6/verif/sim/../tests/custom/templates/test_template.S:807
  addi t4, t4, 1
    80003624:	0e85                	addi	t4,t4,1
/cva6/verif/sim/../tests/custom/templates/test_template.S:808
  addi t5, t5, 1
    80003626:	0f05                	addi	t5,t5,1
/cva6/verif/sim/../tests/custom/templates/test_template.S:809
  addi t1, t1, 1
    80003628:	0305                	addi	t1,t1,1
/cva6/verif/sim/../tests/custom/templates/test_template.S:810
  addi t2, t2, 1
    8000362a:	0385                	addi	t2,t2,1
/cva6/verif/sim/../tests/custom/templates/test_template.S:811
  addi t3, t3, 1
    8000362c:	0e05                	addi	t3,t3,1
/cva6/verif/sim/../tests/custom/templates/test_template.S:812
  addi t4, t4, 1
    8000362e:	0e85                	addi	t4,t4,1
/cva6/verif/sim/../tests/custom/templates/test_template.S:813
  addi t5, t5, 1
    80003630:	0f05                	addi	t5,t5,1
/cva6/verif/sim/../tests/custom/templates/test_template.S:814
  addi t1, t1, 1
    80003632:	0305                	addi	t1,t1,1
/cva6/verif/sim/../tests/custom/templates/test_template.S:815
  addi t2, t2, 1
    80003634:	0385                	addi	t2,t2,1
/cva6/verif/sim/../tests/custom/templates/test_template.S:816
  addi t3, t3, 1
    80003636:	0e05                	addi	t3,t3,1
/cva6/verif/sim/../tests/custom/templates/test_template.S:817
  addi t4, t4, 1
    80003638:	0e85                	addi	t4,t4,1
/cva6/verif/sim/../tests/custom/templates/test_template.S:818
  addi t5, t5, 1
    8000363a:	0f05                	addi	t5,t5,1
/cva6/verif/sim/../tests/custom/templates/test_template.S:819
  addi t1, t1, 1
    8000363c:	0305                	addi	t1,t1,1
/cva6/verif/sim/../tests/custom/templates/test_template.S:820
  addi t2, t2, 1
    8000363e:	0385                	addi	t2,t2,1
/cva6/verif/sim/../tests/custom/templates/test_template.S:821
  addi t3, t3, 1
    80003640:	0e05                	addi	t3,t3,1
/cva6/verif/sim/../tests/custom/templates/test_template.S:822
  addi t4, t4, 1
    80003642:	0e85                	addi	t4,t4,1
/cva6/verif/sim/../tests/custom/templates/test_template.S:823
  addi t5, t5, 1
    80003644:	0f05                	addi	t5,t5,1
/cva6/verif/sim/../tests/custom/templates/test_template.S:824
  addi t1, t1, 1
    80003646:	0305                	addi	t1,t1,1
/cva6/verif/sim/../tests/custom/templates/test_template.S:825
  addi t2, t2, 1
    80003648:	0385                	addi	t2,t2,1
/cva6/verif/sim/../tests/custom/templates/test_template.S:826
  addi t3, t3, 1
    8000364a:	0e05                	addi	t3,t3,1
/cva6/verif/sim/../tests/custom/templates/test_template.S:827
  addi t4, t4, 1
    8000364c:	0e85                	addi	t4,t4,1
/cva6/verif/sim/../tests/custom/templates/test_template.S:828
  addi t5, t5, 1
    8000364e:	0f05                	addi	t5,t5,1
/cva6/verif/sim/../tests/custom/templates/test_template.S:829
  addi t1, t1, 1
    80003650:	0305                	addi	t1,t1,1
/cva6/verif/sim/../tests/custom/templates/test_template.S:830
  addi t2, t2, 1
    80003652:	0385                	addi	t2,t2,1
/cva6/verif/sim/../tests/custom/templates/test_template.S:831
  addi t3, t3, 1
    80003654:	0e05                	addi	t3,t3,1
/cva6/verif/sim/../tests/custom/templates/test_template.S:832
  addi t4, t4, 1
    80003656:	0e85                	addi	t4,t4,1
/cva6/verif/sim/../tests/custom/templates/test_template.S:833
  addi t5, t5, 1
    80003658:	0f05                	addi	t5,t5,1
/cva6/verif/sim/../tests/custom/templates/test_template.S:834
  addi t1, t1, 1
    8000365a:	0305                	addi	t1,t1,1
/cva6/verif/sim/../tests/custom/templates/test_template.S:835
  addi t2, t2, 1
    8000365c:	0385                	addi	t2,t2,1
/cva6/verif/sim/../tests/custom/templates/test_template.S:836
  addi t3, t3, 1
    8000365e:	0e05                	addi	t3,t3,1
/cva6/verif/sim/../tests/custom/templates/test_template.S:837
  addi t4, t4, 1
    80003660:	0e85                	addi	t4,t4,1
/cva6/verif/sim/../tests/custom/templates/test_template.S:838
  addi t5, t5, 1
    80003662:	0f05                	addi	t5,t5,1
/cva6/verif/sim/../tests/custom/templates/test_template.S:839
  addi t1, t1, 1
    80003664:	0305                	addi	t1,t1,1
/cva6/verif/sim/../tests/custom/templates/test_template.S:840
  addi t2, t2, 1
    80003666:	0385                	addi	t2,t2,1
/cva6/verif/sim/../tests/custom/templates/test_template.S:841
  addi t3, t3, 1
    80003668:	0e05                	addi	t3,t3,1
/cva6/verif/sim/../tests/custom/templates/test_template.S:842
  addi t4, t4, 1
    8000366a:	0e85                	addi	t4,t4,1
/cva6/verif/sim/../tests/custom/templates/test_template.S:843
  addi t5, t5, 1
    8000366c:	0f05                	addi	t5,t5,1
/cva6/verif/sim/../tests/custom/templates/test_template.S:844
  addi t1, t1, 1
    8000366e:	0305                	addi	t1,t1,1
/cva6/verif/sim/../tests/custom/templates/test_template.S:845
  addi t2, t2, 1
    80003670:	0385                	addi	t2,t2,1
/cva6/verif/sim/../tests/custom/templates/test_template.S:846
  addi t3, t3, 1
    80003672:	0e05                	addi	t3,t3,1
/cva6/verif/sim/../tests/custom/templates/test_template.S:847
  addi t4, t4, 1
    80003674:	0e85                	addi	t4,t4,1
/cva6/verif/sim/../tests/custom/templates/test_template.S:848
  addi t5, t5, 1
    80003676:	0f05                	addi	t5,t5,1
/cva6/verif/sim/../tests/custom/templates/test_template.S:849
  addi t1, t1, 1
    80003678:	0305                	addi	t1,t1,1
/cva6/verif/sim/../tests/custom/templates/test_template.S:850
  addi t2, t2, 1
    8000367a:	0385                	addi	t2,t2,1
/cva6/verif/sim/../tests/custom/templates/test_template.S:851
  addi t3, t3, 1
    8000367c:	0e05                	addi	t3,t3,1
/cva6/verif/sim/../tests/custom/templates/test_template.S:852
  addi t4, t4, 1
    8000367e:	0e85                	addi	t4,t4,1
/cva6/verif/sim/../tests/custom/templates/test_template.S:853
  addi t5, t5, 1
    80003680:	0f05                	addi	t5,t5,1
/cva6/verif/sim/../tests/custom/templates/test_template.S:854
  addi t1, t1, 1
    80003682:	0305                	addi	t1,t1,1
/cva6/verif/sim/../tests/custom/templates/test_template.S:855
  addi t2, t2, 1
    80003684:	0385                	addi	t2,t2,1
/cva6/verif/sim/../tests/custom/templates/test_template.S:856
  addi t3, t3, 1
    80003686:	0e05                	addi	t3,t3,1
/cva6/verif/sim/../tests/custom/templates/test_template.S:857
  addi t4, t4, 1
    80003688:	0e85                	addi	t4,t4,1
/cva6/verif/sim/../tests/custom/templates/test_template.S:858
  addi t5, t5, 1
    8000368a:	0f05                	addi	t5,t5,1
/cva6/verif/sim/../tests/custom/templates/test_template.S:859
  addi t1, t1, 1
    8000368c:	0305                	addi	t1,t1,1
/cva6/verif/sim/../tests/custom/templates/test_template.S:860
  addi t2, t2, 1
    8000368e:	0385                	addi	t2,t2,1
/cva6/verif/sim/../tests/custom/templates/test_template.S:861
  addi t3, t3, 1
    80003690:	0e05                	addi	t3,t3,1
/cva6/verif/sim/../tests/custom/templates/test_template.S:862
  addi t4, t4, 1
    80003692:	0e85                	addi	t4,t4,1
/cva6/verif/sim/../tests/custom/templates/test_template.S:863
  addi t5, t5, 1
    80003694:	0f05                	addi	t5,t5,1
/cva6/verif/sim/../tests/custom/templates/test_template.S:864
  addi t1, t1, 1
    80003696:	0305                	addi	t1,t1,1
/cva6/verif/sim/../tests/custom/templates/test_template.S:865
  addi t2, t2, 1
    80003698:	0385                	addi	t2,t2,1
/cva6/verif/sim/../tests/custom/templates/test_template.S:866
  addi t3, t3, 1
    8000369a:	0e05                	addi	t3,t3,1
/cva6/verif/sim/../tests/custom/templates/test_template.S:867
  addi t4, t4, 1
    8000369c:	0e85                	addi	t4,t4,1
/cva6/verif/sim/../tests/custom/templates/test_template.S:868
  addi t5, t5, 1
    8000369e:	0f05                	addi	t5,t5,1
/cva6/verif/sim/../tests/custom/templates/test_template.S:869
  addi t1, t1, 1
    800036a0:	0305                	addi	t1,t1,1
/cva6/verif/sim/../tests/custom/templates/test_template.S:870
  addi t2, t2, 1
    800036a2:	0385                	addi	t2,t2,1
/cva6/verif/sim/../tests/custom/templates/test_template.S:871
  addi t3, t3, 1
    800036a4:	0e05                	addi	t3,t3,1
/cva6/verif/sim/../tests/custom/templates/test_template.S:872
  addi t4, t4, 1
    800036a6:	0e85                	addi	t4,t4,1
/cva6/verif/sim/../tests/custom/templates/test_template.S:873
  addi t5, t5, 1
    800036a8:	0f05                	addi	t5,t5,1
/cva6/verif/sim/../tests/custom/templates/test_template.S:874
  addi t1, t1, 1
    800036aa:	0305                	addi	t1,t1,1
/cva6/verif/sim/../tests/custom/templates/test_template.S:875
  addi t2, t2, 1
    800036ac:	0385                	addi	t2,t2,1
/cva6/verif/sim/../tests/custom/templates/test_template.S:876
  addi t3, t3, 1
    800036ae:	0e05                	addi	t3,t3,1
/cva6/verif/sim/../tests/custom/templates/test_template.S:877
  addi t4, t4, 1
    800036b0:	0e85                	addi	t4,t4,1
/cva6/verif/sim/../tests/custom/templates/test_template.S:878
  addi t5, t5, 1
    800036b2:	0f05                	addi	t5,t5,1
/cva6/verif/sim/../tests/custom/templates/test_template.S:879
  addi t1, t1, 1
    800036b4:	0305                	addi	t1,t1,1
/cva6/verif/sim/../tests/custom/templates/test_template.S:880
  addi t2, t2, 1
    800036b6:	0385                	addi	t2,t2,1
/cva6/verif/sim/../tests/custom/templates/test_template.S:881
  addi t3, t3, 1
    800036b8:	0e05                	addi	t3,t3,1
/cva6/verif/sim/../tests/custom/templates/test_template.S:882
  addi t4, t4, 1
    800036ba:	0e85                	addi	t4,t4,1
/cva6/verif/sim/../tests/custom/templates/test_template.S:883
  addi t5, t5, 1
    800036bc:	0f05                	addi	t5,t5,1
/cva6/verif/sim/../tests/custom/templates/test_template.S:884
  addi t1, t1, 1
    800036be:	0305                	addi	t1,t1,1
/cva6/verif/sim/../tests/custom/templates/test_template.S:885
  addi t2, t2, 1
    800036c0:	0385                	addi	t2,t2,1
/cva6/verif/sim/../tests/custom/templates/test_template.S:886
  addi t3, t3, 1
    800036c2:	0e05                	addi	t3,t3,1
/cva6/verif/sim/../tests/custom/templates/test_template.S:887
  addi t4, t4, 1
    800036c4:	0e85                	addi	t4,t4,1
/cva6/verif/sim/../tests/custom/templates/test_template.S:888
  addi t5, t5, 1
    800036c6:	0f05                	addi	t5,t5,1
/cva6/verif/sim/../tests/custom/templates/test_template.S:889
  addi t1, t1, 1
    800036c8:	0305                	addi	t1,t1,1
/cva6/verif/sim/../tests/custom/templates/test_template.S:890
  addi t2, t2, 1
    800036ca:	0385                	addi	t2,t2,1
/cva6/verif/sim/../tests/custom/templates/test_template.S:891
  addi t3, t3, 1
    800036cc:	0e05                	addi	t3,t3,1
/cva6/verif/sim/../tests/custom/templates/test_template.S:892
  addi t4, t4, 1
    800036ce:	0e85                	addi	t4,t4,1
/cva6/verif/sim/../tests/custom/templates/test_template.S:893
  addi t5, t5, 1
    800036d0:	0f05                	addi	t5,t5,1
/cva6/verif/sim/../tests/custom/templates/test_template.S:894
  addi t1, t1, 1
    800036d2:	0305                	addi	t1,t1,1
/cva6/verif/sim/../tests/custom/templates/test_template.S:895
  addi t2, t2, 1
    800036d4:	0385                	addi	t2,t2,1
/cva6/verif/sim/../tests/custom/templates/test_template.S:896
  addi t3, t3, 1
    800036d6:	0e05                	addi	t3,t3,1
/cva6/verif/sim/../tests/custom/templates/test_template.S:897
  addi t4, t4, 1
    800036d8:	0e85                	addi	t4,t4,1
/cva6/verif/sim/../tests/custom/templates/test_template.S:898
  addi t5, t5, 1
    800036da:	0f05                	addi	t5,t5,1
/cva6/verif/sim/../tests/custom/templates/test_template.S:899
  addi t1, t1, 1
    800036dc:	0305                	addi	t1,t1,1
/cva6/verif/sim/../tests/custom/templates/test_template.S:900
  addi t2, t2, 1
    800036de:	0385                	addi	t2,t2,1
/cva6/verif/sim/../tests/custom/templates/test_template.S:901
  addi t3, t3, 1
    800036e0:	0e05                	addi	t3,t3,1
/cva6/verif/sim/../tests/custom/templates/test_template.S:902
  addi t4, t4, 1
    800036e2:	0e85                	addi	t4,t4,1
/cva6/verif/sim/../tests/custom/templates/test_template.S:903
  addi t5, t5, 1
    800036e4:	0f05                	addi	t5,t5,1
/cva6/verif/sim/../tests/custom/templates/test_template.S:904
  addi t1, t1, 1
    800036e6:	0305                	addi	t1,t1,1
/cva6/verif/sim/../tests/custom/templates/test_template.S:905
  addi t2, t2, 1
    800036e8:	0385                	addi	t2,t2,1
/cva6/verif/sim/../tests/custom/templates/test_template.S:906
  addi t3, t3, 1
    800036ea:	0e05                	addi	t3,t3,1
/cva6/verif/sim/../tests/custom/templates/test_template.S:907
  addi t4, t4, 1
    800036ec:	0e85                	addi	t4,t4,1
/cva6/verif/sim/../tests/custom/templates/test_template.S:908
  addi t5, t5, 1
    800036ee:	0f05                	addi	t5,t5,1
/cva6/verif/sim/../tests/custom/templates/test_template.S:909
  addi t1, t1, 1
    800036f0:	0305                	addi	t1,t1,1
/cva6/verif/sim/../tests/custom/templates/test_template.S:910
  addi t2, t2, 1
    800036f2:	0385                	addi	t2,t2,1
/cva6/verif/sim/../tests/custom/templates/test_template.S:911
  addi t3, t3, 1
    800036f4:	0e05                	addi	t3,t3,1
/cva6/verif/sim/../tests/custom/templates/test_template.S:912
  addi t4, t4, 1
    800036f6:	0e85                	addi	t4,t4,1
/cva6/verif/sim/../tests/custom/templates/test_template.S:913
  addi t5, t5, 1
    800036f8:	0f05                	addi	t5,t5,1
/cva6/verif/sim/../tests/custom/templates/test_template.S:914
  addi t1, t1, 1
    800036fa:	0305                	addi	t1,t1,1
/cva6/verif/sim/../tests/custom/templates/test_template.S:915
  addi t2, t2, 1
    800036fc:	0385                	addi	t2,t2,1
/cva6/verif/sim/../tests/custom/templates/test_template.S:916
  addi t3, t3, 1
    800036fe:	0e05                	addi	t3,t3,1
/cva6/verif/sim/../tests/custom/templates/test_template.S:917
  addi t4, t4, 1
    80003700:	0e85                	addi	t4,t4,1
/cva6/verif/sim/../tests/custom/templates/test_template.S:918
  addi t5, t5, 1
    80003702:	0f05                	addi	t5,t5,1
/cva6/verif/sim/../tests/custom/templates/test_template.S:919
  addi t1, t1, 1
    80003704:	0305                	addi	t1,t1,1
/cva6/verif/sim/../tests/custom/templates/test_template.S:920
  addi t2, t2, 1
    80003706:	0385                	addi	t2,t2,1
/cva6/verif/sim/../tests/custom/templates/test_template.S:921
  addi t3, t3, 1
    80003708:	0e05                	addi	t3,t3,1
/cva6/verif/sim/../tests/custom/templates/test_template.S:922
  addi t4, t4, 1
    8000370a:	0e85                	addi	t4,t4,1
/cva6/verif/sim/../tests/custom/templates/test_template.S:923
  addi t5, t5, 1
    8000370c:	0f05                	addi	t5,t5,1
/cva6/verif/sim/../tests/custom/templates/test_template.S:924
  addi t1, t1, 1
    8000370e:	0305                	addi	t1,t1,1
/cva6/verif/sim/../tests/custom/templates/test_template.S:925
  addi t2, t2, 1
    80003710:	0385                	addi	t2,t2,1
/cva6/verif/sim/../tests/custom/templates/test_template.S:926
  addi t3, t3, 1
    80003712:	0e05                	addi	t3,t3,1
/cva6/verif/sim/../tests/custom/templates/test_template.S:927
  addi t4, t4, 1
    80003714:	0e85                	addi	t4,t4,1
/cva6/verif/sim/../tests/custom/templates/test_template.S:928
  addi t5, t5, 1
    80003716:	0f05                	addi	t5,t5,1
/cva6/verif/sim/../tests/custom/templates/test_template.S:929
  addi t1, t1, 1
    80003718:	0305                	addi	t1,t1,1
/cva6/verif/sim/../tests/custom/templates/test_template.S:930
  addi t2, t2, 1
    8000371a:	0385                	addi	t2,t2,1
/cva6/verif/sim/../tests/custom/templates/test_template.S:931
  addi t3, t3, 1
    8000371c:	0e05                	addi	t3,t3,1
/cva6/verif/sim/../tests/custom/templates/test_template.S:932
  addi t4, t4, 1
    8000371e:	0e85                	addi	t4,t4,1
/cva6/verif/sim/../tests/custom/templates/test_template.S:933
  addi t5, t5, 1
    80003720:	0f05                	addi	t5,t5,1
/cva6/verif/sim/../tests/custom/templates/test_template.S:934
  addi t1, t1, 1
    80003722:	0305                	addi	t1,t1,1
/cva6/verif/sim/../tests/custom/templates/test_template.S:935
  addi t2, t2, 1
    80003724:	0385                	addi	t2,t2,1
/cva6/verif/sim/../tests/custom/templates/test_template.S:936
  addi t3, t3, 1
    80003726:	0e05                	addi	t3,t3,1
/cva6/verif/sim/../tests/custom/templates/test_template.S:937
  addi t4, t4, 1
    80003728:	0e85                	addi	t4,t4,1
/cva6/verif/sim/../tests/custom/templates/test_template.S:938
  addi t5, t5, 1
    8000372a:	0f05                	addi	t5,t5,1
/cva6/verif/sim/../tests/custom/templates/test_template.S:939
  addi t1, t1, 1
    8000372c:	0305                	addi	t1,t1,1
/cva6/verif/sim/../tests/custom/templates/test_template.S:940
  addi t2, t2, 1
    8000372e:	0385                	addi	t2,t2,1
/cva6/verif/sim/../tests/custom/templates/test_template.S:941
  addi t3, t3, 1
    80003730:	0e05                	addi	t3,t3,1
/cva6/verif/sim/../tests/custom/templates/test_template.S:942
  addi t4, t4, 1
    80003732:	0e85                	addi	t4,t4,1
/cva6/verif/sim/../tests/custom/templates/test_template.S:943
  addi t5, t5, 1
    80003734:	0f05                	addi	t5,t5,1
/cva6/verif/sim/../tests/custom/templates/test_template.S:944
  addi t1, t1, 1
    80003736:	0305                	addi	t1,t1,1
/cva6/verif/sim/../tests/custom/templates/test_template.S:945
  addi t2, t2, 1
    80003738:	0385                	addi	t2,t2,1
/cva6/verif/sim/../tests/custom/templates/test_template.S:946
  addi t3, t3, 1
    8000373a:	0e05                	addi	t3,t3,1
/cva6/verif/sim/../tests/custom/templates/test_template.S:947
  addi t4, t4, 1
    8000373c:	0e85                	addi	t4,t4,1
/cva6/verif/sim/../tests/custom/templates/test_template.S:948
  addi t5, t5, 1
    8000373e:	0f05                	addi	t5,t5,1
/cva6/verif/sim/../tests/custom/templates/test_template.S:949
  addi t1, t1, 1
    80003740:	0305                	addi	t1,t1,1
/cva6/verif/sim/../tests/custom/templates/test_template.S:950
  addi t2, t2, 1
    80003742:	0385                	addi	t2,t2,1
/cva6/verif/sim/../tests/custom/templates/test_template.S:951
  addi t3, t3, 1
    80003744:	0e05                	addi	t3,t3,1
/cva6/verif/sim/../tests/custom/templates/test_template.S:952
  addi t4, t4, 1
    80003746:	0e85                	addi	t4,t4,1
/cva6/verif/sim/../tests/custom/templates/test_template.S:953
  addi t5, t5, 1
    80003748:	0f05                	addi	t5,t5,1
/cva6/verif/sim/../tests/custom/templates/test_template.S:954
  addi t1, t1, 1
    8000374a:	0305                	addi	t1,t1,1
/cva6/verif/sim/../tests/custom/templates/test_template.S:955
  addi t2, t2, 1
    8000374c:	0385                	addi	t2,t2,1
/cva6/verif/sim/../tests/custom/templates/test_template.S:956
  addi t3, t3, 1
    8000374e:	0e05                	addi	t3,t3,1
/cva6/verif/sim/../tests/custom/templates/test_template.S:957
  addi t4, t4, 1
    80003750:	0e85                	addi	t4,t4,1
/cva6/verif/sim/../tests/custom/templates/test_template.S:958
  addi t5, t5, 1
    80003752:	0f05                	addi	t5,t5,1
/cva6/verif/sim/../tests/custom/templates/test_template.S:959
  addi t1, t1, 1
    80003754:	0305                	addi	t1,t1,1
/cva6/verif/sim/../tests/custom/templates/test_template.S:960
  addi t2, t2, 1
    80003756:	0385                	addi	t2,t2,1
/cva6/verif/sim/../tests/custom/templates/test_template.S:961
  addi t3, t3, 1
    80003758:	0e05                	addi	t3,t3,1
/cva6/verif/sim/../tests/custom/templates/test_template.S:962
  addi t4, t4, 1
    8000375a:	0e85                	addi	t4,t4,1
/cva6/verif/sim/../tests/custom/templates/test_template.S:963
  addi t5, t5, 1
    8000375c:	0f05                	addi	t5,t5,1
/cva6/verif/sim/../tests/custom/templates/test_template.S:964
  addi t1, t1, 1
    8000375e:	0305                	addi	t1,t1,1
/cva6/verif/sim/../tests/custom/templates/test_template.S:965
  addi t2, t2, 1
    80003760:	0385                	addi	t2,t2,1
/cva6/verif/sim/../tests/custom/templates/test_template.S:966
  addi t3, t3, 1
    80003762:	0e05                	addi	t3,t3,1
/cva6/verif/sim/../tests/custom/templates/test_template.S:967
  addi t4, t4, 1
    80003764:	0e85                	addi	t4,t4,1
/cva6/verif/sim/../tests/custom/templates/test_template.S:968
  addi t5, t5, 1
    80003766:	0f05                	addi	t5,t5,1
/cva6/verif/sim/../tests/custom/templates/test_template.S:969
  addi t1, t1, 1
    80003768:	0305                	addi	t1,t1,1
/cva6/verif/sim/../tests/custom/templates/test_template.S:970
  addi t2, t2, 1
    8000376a:	0385                	addi	t2,t2,1
/cva6/verif/sim/../tests/custom/templates/test_template.S:971
  addi t3, t3, 1
    8000376c:	0e05                	addi	t3,t3,1
/cva6/verif/sim/../tests/custom/templates/test_template.S:972
  addi t4, t4, 1
    8000376e:	0e85                	addi	t4,t4,1
/cva6/verif/sim/../tests/custom/templates/test_template.S:973
  addi t5, t5, 1
    80003770:	0f05                	addi	t5,t5,1
/cva6/verif/sim/../tests/custom/templates/test_template.S:974
  addi t1, t1, 1
    80003772:	0305                	addi	t1,t1,1
/cva6/verif/sim/../tests/custom/templates/test_template.S:975
  addi t2, t2, 1
    80003774:	0385                	addi	t2,t2,1
/cva6/verif/sim/../tests/custom/templates/test_template.S:976
  addi t3, t3, 1
    80003776:	0e05                	addi	t3,t3,1
/cva6/verif/sim/../tests/custom/templates/test_template.S:977
  addi t4, t4, 1
    80003778:	0e85                	addi	t4,t4,1
/cva6/verif/sim/../tests/custom/templates/test_template.S:978
  addi t5, t5, 1
    8000377a:	0f05                	addi	t5,t5,1
/cva6/verif/sim/../tests/custom/templates/test_template.S:979
  addi t1, t1, 1
    8000377c:	0305                	addi	t1,t1,1
/cva6/verif/sim/../tests/custom/templates/test_template.S:980
  addi t2, t2, 1
    8000377e:	0385                	addi	t2,t2,1
/cva6/verif/sim/../tests/custom/templates/test_template.S:981
  addi t3, t3, 1
    80003780:	0e05                	addi	t3,t3,1
/cva6/verif/sim/../tests/custom/templates/test_template.S:982
  addi t4, t4, 1
    80003782:	0e85                	addi	t4,t4,1
/cva6/verif/sim/../tests/custom/templates/test_template.S:983
  addi t5, t5, 1
    80003784:	0f05                	addi	t5,t5,1
/cva6/verif/sim/../tests/custom/templates/test_template.S:984
  addi t1, t1, 1
    80003786:	0305                	addi	t1,t1,1
/cva6/verif/sim/../tests/custom/templates/test_template.S:985
  addi t2, t2, 1
    80003788:	0385                	addi	t2,t2,1
/cva6/verif/sim/../tests/custom/templates/test_template.S:986
  addi t3, t3, 1
    8000378a:	0e05                	addi	t3,t3,1
/cva6/verif/sim/../tests/custom/templates/test_template.S:987
  addi t4, t4, 1
    8000378c:	0e85                	addi	t4,t4,1
/cva6/verif/sim/../tests/custom/templates/test_template.S:988
  addi t5, t5, 1
    8000378e:	0f05                	addi	t5,t5,1
/cva6/verif/sim/../tests/custom/templates/test_template.S:989
  addi t1, t1, 1
    80003790:	0305                	addi	t1,t1,1
/cva6/verif/sim/../tests/custom/templates/test_template.S:990
  addi t2, t2, 1
    80003792:	0385                	addi	t2,t2,1
/cva6/verif/sim/../tests/custom/templates/test_template.S:991
  addi t3, t3, 1
    80003794:	0e05                	addi	t3,t3,1
/cva6/verif/sim/../tests/custom/templates/test_template.S:992
  addi t4, t4, 1
    80003796:	0e85                	addi	t4,t4,1
/cva6/verif/sim/../tests/custom/templates/test_template.S:993
  addi t5, t5, 1
    80003798:	0f05                	addi	t5,t5,1
/cva6/verif/sim/../tests/custom/templates/test_template.S:994
  addi t1, t1, 1
    8000379a:	0305                	addi	t1,t1,1
/cva6/verif/sim/../tests/custom/templates/test_template.S:995
  addi t2, t2, 1
    8000379c:	0385                	addi	t2,t2,1
/cva6/verif/sim/../tests/custom/templates/test_template.S:996
  addi t3, t3, 1
    8000379e:	0e05                	addi	t3,t3,1
/cva6/verif/sim/../tests/custom/templates/test_template.S:997
  addi t4, t4, 1
    800037a0:	0e85                	addi	t4,t4,1
/cva6/verif/sim/../tests/custom/templates/test_template.S:998
  addi t5, t5, 1
    800037a2:	0f05                	addi	t5,t5,1
/cva6/verif/sim/../tests/custom/templates/test_template.S:999
  addi t1, t1, 1
    800037a4:	0305                	addi	t1,t1,1
/cva6/verif/sim/../tests/custom/templates/test_template.S:1000
  addi t2, t2, 1
    800037a6:	0385                	addi	t2,t2,1
/cva6/verif/sim/../tests/custom/templates/test_template.S:1001
  addi t3, t3, 1
    800037a8:	0e05                	addi	t3,t3,1
/cva6/verif/sim/../tests/custom/templates/test_template.S:1002
  addi t4, t4, 1
    800037aa:	0e85                	addi	t4,t4,1
/cva6/verif/sim/../tests/custom/templates/test_template.S:1003
  addi t5, t5, 1
    800037ac:	0f05                	addi	t5,t5,1
/cva6/verif/sim/../tests/custom/templates/test_template.S:1004
  addi t1, t1, 1
    800037ae:	0305                	addi	t1,t1,1
/cva6/verif/sim/../tests/custom/templates/test_template.S:1005
  addi t2, t2, 1
    800037b0:	0385                	addi	t2,t2,1
/cva6/verif/sim/../tests/custom/templates/test_template.S:1006
  addi t3, t3, 1
    800037b2:	0e05                	addi	t3,t3,1
/cva6/verif/sim/../tests/custom/templates/test_template.S:1007
  addi t4, t4, 1
    800037b4:	0e85                	addi	t4,t4,1
/cva6/verif/sim/../tests/custom/templates/test_template.S:1008
  addi t5, t5, 1
    800037b6:	0f05                	addi	t5,t5,1
/cva6/verif/sim/../tests/custom/templates/test_template.S:1009
  addi t1, t1, 1
    800037b8:	0305                	addi	t1,t1,1
/cva6/verif/sim/../tests/custom/templates/test_template.S:1010
  addi t2, t2, 1
    800037ba:	0385                	addi	t2,t2,1
/cva6/verif/sim/../tests/custom/templates/test_template.S:1011
  addi t3, t3, 1
    800037bc:	0e05                	addi	t3,t3,1
/cva6/verif/sim/../tests/custom/templates/test_template.S:1012
  addi t4, t4, 1
    800037be:	0e85                	addi	t4,t4,1
/cva6/verif/sim/../tests/custom/templates/test_template.S:1013
  addi t5, t5, 1
    800037c0:	0f05                	addi	t5,t5,1
/cva6/verif/sim/../tests/custom/templates/test_template.S:1014
  addi t1, t1, 1
    800037c2:	0305                	addi	t1,t1,1
/cva6/verif/sim/../tests/custom/templates/test_template.S:1015
  addi t2, t2, 1
    800037c4:	0385                	addi	t2,t2,1
/cva6/verif/sim/../tests/custom/templates/test_template.S:1016
  addi t3, t3, 1
    800037c6:	0e05                	addi	t3,t3,1
/cva6/verif/sim/../tests/custom/templates/test_template.S:1017
  addi t4, t4, 1
    800037c8:	0e85                	addi	t4,t4,1
/cva6/verif/sim/../tests/custom/templates/test_template.S:1018
  addi t5, t5, 1
    800037ca:	0f05                	addi	t5,t5,1
/cva6/verif/sim/../tests/custom/templates/test_template.S:1019
  addi t1, t1, 1
    800037cc:	0305                	addi	t1,t1,1
/cva6/verif/sim/../tests/custom/templates/test_template.S:1020
  addi t2, t2, 1
    800037ce:	0385                	addi	t2,t2,1
/cva6/verif/sim/../tests/custom/templates/test_template.S:1021
  addi t3, t3, 1
    800037d0:	0e05                	addi	t3,t3,1
/cva6/verif/sim/../tests/custom/templates/test_template.S:1022
  addi t4, t4, 1
    800037d2:	0e85                	addi	t4,t4,1
/cva6/verif/sim/../tests/custom/templates/test_template.S:1023
  addi t5, t5, 1
    800037d4:	0f05                	addi	t5,t5,1
/cva6/verif/sim/../tests/custom/templates/test_template.S:1024
  addi t1, t1, 1
    800037d6:	0305                	addi	t1,t1,1
/cva6/verif/sim/../tests/custom/templates/test_template.S:1025
  addi t2, t2, 1
    800037d8:	0385                	addi	t2,t2,1
/cva6/verif/sim/../tests/custom/templates/test_template.S:1026
  addi t3, t3, 1
    800037da:	0e05                	addi	t3,t3,1
/cva6/verif/sim/../tests/custom/templates/test_template.S:1027
  addi t4, t4, 1
    800037dc:	0e85                	addi	t4,t4,1
/cva6/verif/sim/../tests/custom/templates/test_template.S:1028
  addi t5, t5, 1
    800037de:	0f05                	addi	t5,t5,1
/cva6/verif/sim/../tests/custom/templates/test_template.S:1029
  addi t1, t1, 1
    800037e0:	0305                	addi	t1,t1,1
/cva6/verif/sim/../tests/custom/templates/test_template.S:1030
  addi t2, t2, 1
    800037e2:	0385                	addi	t2,t2,1
/cva6/verif/sim/../tests/custom/templates/test_template.S:1031
  addi t3, t3, 1
    800037e4:	0e05                	addi	t3,t3,1
/cva6/verif/sim/../tests/custom/templates/test_template.S:1032
  addi t4, t4, 1
    800037e6:	0e85                	addi	t4,t4,1
/cva6/verif/sim/../tests/custom/templates/test_template.S:1033
  addi t5, t5, 1
    800037e8:	0f05                	addi	t5,t5,1
/cva6/verif/sim/../tests/custom/templates/test_template.S:1034
  addi t1, t1, 1
    800037ea:	0305                	addi	t1,t1,1
/cva6/verif/sim/../tests/custom/templates/test_template.S:1035
  addi t2, t2, 1
    800037ec:	0385                	addi	t2,t2,1
/cva6/verif/sim/../tests/custom/templates/test_template.S:1036
  addi t3, t3, 1
    800037ee:	0e05                	addi	t3,t3,1
/cva6/verif/sim/../tests/custom/templates/test_template.S:1037
  addi t4, t4, 1
    800037f0:	0e85                	addi	t4,t4,1
/cva6/verif/sim/../tests/custom/templates/test_template.S:1038
  addi t5, t5, 1
    800037f2:	0f05                	addi	t5,t5,1
/cva6/verif/sim/../tests/custom/templates/test_template.S:1039
  addi t1, t1, 1
    800037f4:	0305                	addi	t1,t1,1
/cva6/verif/sim/../tests/custom/templates/test_template.S:1040
  addi t2, t2, 1
    800037f6:	0385                	addi	t2,t2,1
/cva6/verif/sim/../tests/custom/templates/test_template.S:1041
  addi t3, t3, 1
    800037f8:	0e05                	addi	t3,t3,1
/cva6/verif/sim/../tests/custom/templates/test_template.S:1042
  addi t4, t4, 1
    800037fa:	0e85                	addi	t4,t4,1
/cva6/verif/sim/../tests/custom/templates/test_template.S:1043
  addi t5, t5, 1
    800037fc:	0f05                	addi	t5,t5,1
/cva6/verif/sim/../tests/custom/templates/test_template.S:1044
  addi t1, t1, 1
    800037fe:	0305                	addi	t1,t1,1
/cva6/verif/sim/../tests/custom/templates/test_template.S:1045
  addi t2, t2, 1
    80003800:	0385                	addi	t2,t2,1
/cva6/verif/sim/../tests/custom/templates/test_template.S:1046
  addi t3, t3, 1
    80003802:	0e05                	addi	t3,t3,1
/cva6/verif/sim/../tests/custom/templates/test_template.S:1047
  addi t4, t4, 1
    80003804:	0e85                	addi	t4,t4,1
/cva6/verif/sim/../tests/custom/templates/test_template.S:1048
  addi t5, t5, 1
    80003806:	0f05                	addi	t5,t5,1
/cva6/verif/sim/../tests/custom/templates/test_template.S:1049
  addi t1, t1, 1
    80003808:	0305                	addi	t1,t1,1
/cva6/verif/sim/../tests/custom/templates/test_template.S:1050
  addi t2, t2, 1
    8000380a:	0385                	addi	t2,t2,1
/cva6/verif/sim/../tests/custom/templates/test_template.S:1051
  addi t3, t3, 1
    8000380c:	0e05                	addi	t3,t3,1
/cva6/verif/sim/../tests/custom/templates/test_template.S:1052
  addi t4, t4, 1
    8000380e:	0e85                	addi	t4,t4,1
/cva6/verif/sim/../tests/custom/templates/test_template.S:1053
  addi t5, t5, 1
    80003810:	0f05                	addi	t5,t5,1
/cva6/verif/sim/../tests/custom/templates/test_template.S:1054
  addi t1, t1, 1
    80003812:	0305                	addi	t1,t1,1
/cva6/verif/sim/../tests/custom/templates/test_template.S:1055
  addi t2, t2, 1
    80003814:	0385                	addi	t2,t2,1
/cva6/verif/sim/../tests/custom/templates/test_template.S:1056
  addi t3, t3, 1
    80003816:	0e05                	addi	t3,t3,1
/cva6/verif/sim/../tests/custom/templates/test_template.S:1057
  addi t4, t4, 1
    80003818:	0e85                	addi	t4,t4,1
/cva6/verif/sim/../tests/custom/templates/test_template.S:1058
  addi t5, t5, 1
    8000381a:	0f05                	addi	t5,t5,1
/cva6/verif/sim/../tests/custom/templates/test_template.S:1059
  addi t1, t1, 1
    8000381c:	0305                	addi	t1,t1,1
/cva6/verif/sim/../tests/custom/templates/test_template.S:1060
  addi t2, t2, 1
    8000381e:	0385                	addi	t2,t2,1
/cva6/verif/sim/../tests/custom/templates/test_template.S:1061
  addi t3, t3, 1
    80003820:	0e05                	addi	t3,t3,1
/cva6/verif/sim/../tests/custom/templates/test_template.S:1062
  addi t4, t4, 1
    80003822:	0e85                	addi	t4,t4,1
/cva6/verif/sim/../tests/custom/templates/test_template.S:1063
  addi t5, t5, 1
    80003824:	0f05                	addi	t5,t5,1
/cva6/verif/sim/../tests/custom/templates/test_template.S:1064
  addi t1, t1, 1
    80003826:	0305                	addi	t1,t1,1
/cva6/verif/sim/../tests/custom/templates/test_template.S:1065
  addi t2, t2, 1
    80003828:	0385                	addi	t2,t2,1
/cva6/verif/sim/../tests/custom/templates/test_template.S:1066
  addi t3, t3, 1
    8000382a:	0e05                	addi	t3,t3,1
/cva6/verif/sim/../tests/custom/templates/test_template.S:1067
  addi t4, t4, 1
    8000382c:	0e85                	addi	t4,t4,1
/cva6/verif/sim/../tests/custom/templates/test_template.S:1068
  addi t5, t5, 1
    8000382e:	0f05                	addi	t5,t5,1
/cva6/verif/sim/../tests/custom/templates/test_template.S:1069
  addi t1, t1, 1
    80003830:	0305                	addi	t1,t1,1
/cva6/verif/sim/../tests/custom/templates/test_template.S:1070
  addi t2, t2, 1
    80003832:	0385                	addi	t2,t2,1
/cva6/verif/sim/../tests/custom/templates/test_template.S:1071
  addi t3, t3, 1
    80003834:	0e05                	addi	t3,t3,1
/cva6/verif/sim/../tests/custom/templates/test_template.S:1072
  addi t4, t4, 1
    80003836:	0e85                	addi	t4,t4,1
/cva6/verif/sim/../tests/custom/templates/test_template.S:1073
  addi t5, t5, 1
    80003838:	0f05                	addi	t5,t5,1
/cva6/verif/sim/../tests/custom/templates/test_template.S:1074
  addi t1, t1, 1
    8000383a:	0305                	addi	t1,t1,1
/cva6/verif/sim/../tests/custom/templates/test_template.S:1075
  addi t2, t2, 1
    8000383c:	0385                	addi	t2,t2,1
/cva6/verif/sim/../tests/custom/templates/test_template.S:1076
  addi t3, t3, 1
    8000383e:	0e05                	addi	t3,t3,1
/cva6/verif/sim/../tests/custom/templates/test_template.S:1077
  addi t4, t4, 1
    80003840:	0e85                	addi	t4,t4,1
/cva6/verif/sim/../tests/custom/templates/test_template.S:1078
  addi t5, t5, 1
    80003842:	0f05                	addi	t5,t5,1
/cva6/verif/sim/../tests/custom/templates/test_template.S:1079
  addi t1, t1, 1
    80003844:	0305                	addi	t1,t1,1
/cva6/verif/sim/../tests/custom/templates/test_template.S:1080
  addi t2, t2, 1
    80003846:	0385                	addi	t2,t2,1
/cva6/verif/sim/../tests/custom/templates/test_template.S:1081
  addi t3, t3, 1
    80003848:	0e05                	addi	t3,t3,1
/cva6/verif/sim/../tests/custom/templates/test_template.S:1082
  addi t4, t4, 1
    8000384a:	0e85                	addi	t4,t4,1
/cva6/verif/sim/../tests/custom/templates/test_template.S:1083
  addi t5, t5, 1
    8000384c:	0f05                	addi	t5,t5,1
/cva6/verif/sim/../tests/custom/templates/test_template.S:1084
  addi t1, t1, 1
    8000384e:	0305                	addi	t1,t1,1
/cva6/verif/sim/../tests/custom/templates/test_template.S:1085
  addi t2, t2, 1
    80003850:	0385                	addi	t2,t2,1
/cva6/verif/sim/../tests/custom/templates/test_template.S:1086
  addi t3, t3, 1
    80003852:	0e05                	addi	t3,t3,1
/cva6/verif/sim/../tests/custom/templates/test_template.S:1087
  addi t4, t4, 1
    80003854:	0e85                	addi	t4,t4,1
/cva6/verif/sim/../tests/custom/templates/test_template.S:1088
  addi t5, t5, 1
    80003856:	0f05                	addi	t5,t5,1
/cva6/verif/sim/../tests/custom/templates/test_template.S:1094

  # ---------------------------------------------------------
  # SNAPSHOT FINAL Y CÁLCULO DE DIFERENCIAS
  # ---------------------------------------------------------
  # x18 (s2) = Cycles
  csrr    s2, CSR_MCYCLE
    80003858:	b0002973          	csrr	s2,mcycle
/cva6/verif/sim/../tests/custom/templates/test_template.S:1095
  ld      t0, 0(sp)
    8000385c:	6282                	ld	t0,0(sp)
/cva6/verif/sim/../tests/custom/templates/test_template.S:1096
  sub     s2, s2, t0
    8000385e:	40590933          	sub	s2,s2,t0
/cva6/verif/sim/../tests/custom/templates/test_template.S:1099

  # x19 (s3) = Instructions
  csrr    s3, CSR_MINSTRET
    80003862:	b02029f3          	csrr	s3,minstret
/cva6/verif/sim/../tests/custom/templates/test_template.S:1100
  ld      t0, 8(sp)
    80003866:	62a2                	ld	t0,8(sp)
/cva6/verif/sim/../tests/custom/templates/test_template.S:1101
  sub     s3, s3, t0
    80003868:	405989b3          	sub	s3,s3,t0
/cva6/verif/sim/../tests/custom/templates/test_template.S:1104

  # x20 (s4) = I-Cache Miss
  csrr    s4, CSR_MHPMCOUNTER3
    8000386c:	b0302a73          	csrr	s4,mhpmcounter3
/cva6/verif/sim/../tests/custom/templates/test_template.S:1105
  ld      t0, 16(sp)
    80003870:	62c2                	ld	t0,16(sp)
/cva6/verif/sim/../tests/custom/templates/test_template.S:1106
  sub     s4, s4, t0
    80003872:	405a0a33          	sub	s4,s4,t0
/cva6/verif/sim/../tests/custom/templates/test_template.S:1109

  # x21 (s5) = D-Cache Miss
  csrr    s5, CSR_MHPMCOUNTER4
    80003876:	b0402af3          	csrr	s5,mhpmcounter4
/cva6/verif/sim/../tests/custom/templates/test_template.S:1110
  ld      t0, 24(sp)
    8000387a:	62e2                	ld	t0,24(sp)
/cva6/verif/sim/../tests/custom/templates/test_template.S:1111
  sub     s5, s5, t0
    8000387c:	405a8ab3          	sub	s5,s5,t0
/cva6/verif/sim/../tests/custom/templates/test_template.S:1114

  # x22 (s6) = I-Cache Access
  csrr    s6, CSR_MHPMCOUNTER5
    80003880:	b0502b73          	csrr	s6,mhpmcounter5
/cva6/verif/sim/../tests/custom/templates/test_template.S:1115
  ld      t0, 32(sp)
    80003884:	7282                	ld	t0,32(sp)
/cva6/verif/sim/../tests/custom/templates/test_template.S:1116
  sub     s6, s6, t0
    80003886:	405b0b33          	sub	s6,s6,t0
/cva6/verif/sim/../tests/custom/templates/test_template.S:1119

  # x23 (s7) = Pipeline Stall
  csrr    s7, CSR_MHPMCOUNTER6
    8000388a:	b0602bf3          	csrr	s7,mhpmcounter6
/cva6/verif/sim/../tests/custom/templates/test_template.S:1120
  ld      t0, 40(sp)
    8000388e:	72a2                	ld	t0,40(sp)
/cva6/verif/sim/../tests/custom/templates/test_template.S:1121
  sub     s7, s7, t0
    80003890:	405b8bb3          	sub	s7,s7,t0
/cva6/verif/sim/../tests/custom/templates/test_template.S:1124

  # x24 (s8) = Branches
  csrr    s8, CSR_MHPMCOUNTER7
    80003894:	b0702c73          	csrr	s8,mhpmcounter7
/cva6/verif/sim/../tests/custom/templates/test_template.S:1125
  ld      t0, 48(sp)
    80003898:	72c2                	ld	t0,48(sp)
/cva6/verif/sim/../tests/custom/templates/test_template.S:1126
  sub     s8, s8, t0
    8000389a:	405c0c33          	sub	s8,s8,t0
/cva6/verif/sim/../tests/custom/templates/test_template.S:1129

  # x25 (s9) = Branch Miss
  csrr    s9, CSR_MHPMCOUNTER8
    8000389e:	b0802cf3          	csrr	s9,mhpmcounter8
/cva6/verif/sim/../tests/custom/templates/test_template.S:1130
  ld      t0, 56(sp)
    800038a2:	72e2                	ld	t0,56(sp)
/cva6/verif/sim/../tests/custom/templates/test_template.S:1131
  sub     s9, s9, t0
    800038a4:	405c8cb3          	sub	s9,s9,t0
/cva6/verif/sim/../tests/custom/templates/test_template.S:1134

  # Restaurar Stack Pointer
  addi    sp, sp, 80
    800038a8:	6161                	addi	sp,sp,80
/cva6/verif/sim/../tests/custom/templates/test_template.S:1139

  # ---------------------------------------------------------
  # CÁLCULO TIEMPO (us) -> x26 (s10)
  # ---------------------------------------------------------
  li      t0, 1000000
    800038aa:	000f42b7          	lui	t0,0xf4
    800038ae:	2402829b          	addiw	t0,t0,576
/cva6/verif/sim/../tests/custom/templates/test_template.S:1140
  mul     s10, s2, t0      # s10 = Cycles (s2) * 1M
    800038b2:	02590d33          	mul	s10,s2,t0
/cva6/verif/sim/../tests/custom/templates/test_template.S:1141
  li      t0, CPU_FREQ
    800038b6:	02faf2b7          	lui	t0,0x2faf
    800038ba:	0802829b          	addiw	t0,t0,128
/cva6/verif/sim/../tests/custom/templates/test_template.S:1142
  divu    s10, s10, t0     # s10 = s10 / Freq
    800038be:	025d5d33          	divu	s10,s10,t0
/cva6/verif/sim/../tests/custom/templates/test_template.S:1147

  # ---------------------------------------------------------
  # SALIDA
  # ---------------------------------------------------------
  li      a0, 0
    800038c2:	4501                	li	a0,0
/cva6/verif/sim/../tests/custom/templates/test_template.S:1148
    800038c4:	51a000ef          	jal	ra,80003dde <exit>

00000000800038c8 <verify>:
verify():
/cva6/verif/sim/../tests/custom/common/util.h:13
#include <stdint.h>

#define static_assert(cond) switch(0) { case 0: case !!(long)(cond): ; }

static int verify(int n, const volatile int* test, const int* verify)
{
    800038c8:	715d                	addi	sp,sp,-80
    800038ca:	e4a2                	sd	s0,72(sp)
    800038cc:	0880                	addi	s0,sp,80
    800038ce:	87aa                	mv	a5,a0
    800038d0:	fcb43023          	sd	a1,-64(s0)
    800038d4:	fac43c23          	sd	a2,-72(s0)
    800038d8:	fcf42623          	sw	a5,-52(s0)
/cva6/verif/sim/../tests/custom/common/util.h:16
  int i;
  // Unrolled for faster verification
  for (i = 0; i < n/2*2; i+=2)
    800038dc:	fe042623          	sw	zero,-20(s0)
    800038e0:	a841                	j	80003970 <verify+0xa8>
/cva6/verif/sim/../tests/custom/common/util.h:18
  {
    int t0 = test[i], t1 = test[i+1];
    800038e2:	fec42783          	lw	a5,-20(s0)
    800038e6:	078a                	slli	a5,a5,0x2
    800038e8:	fc043703          	ld	a4,-64(s0)
    800038ec:	97ba                	add	a5,a5,a4
    800038ee:	439c                	lw	a5,0(a5)
    800038f0:	fef42423          	sw	a5,-24(s0)
    800038f4:	fec42783          	lw	a5,-20(s0)
    800038f8:	0785                	addi	a5,a5,1
    800038fa:	078a                	slli	a5,a5,0x2
    800038fc:	fc043703          	ld	a4,-64(s0)
    80003900:	97ba                	add	a5,a5,a4
    80003902:	439c                	lw	a5,0(a5)
    80003904:	fef42223          	sw	a5,-28(s0)
/cva6/verif/sim/../tests/custom/common/util.h:19
    int v0 = verify[i], v1 = verify[i+1];
    80003908:	fec42783          	lw	a5,-20(s0)
    8000390c:	078a                	slli	a5,a5,0x2
    8000390e:	fb843703          	ld	a4,-72(s0)
    80003912:	97ba                	add	a5,a5,a4
    80003914:	439c                	lw	a5,0(a5)
    80003916:	fef42023          	sw	a5,-32(s0)
    8000391a:	fec42783          	lw	a5,-20(s0)
    8000391e:	0785                	addi	a5,a5,1
    80003920:	078a                	slli	a5,a5,0x2
    80003922:	fb843703          	ld	a4,-72(s0)
    80003926:	97ba                	add	a5,a5,a4
    80003928:	439c                	lw	a5,0(a5)
    8000392a:	fcf42e23          	sw	a5,-36(s0)
/cva6/verif/sim/../tests/custom/common/util.h:20
    if (t0 != v0) return i+1;
    8000392e:	fe842783          	lw	a5,-24(s0)
    80003932:	873e                	mv	a4,a5
    80003934:	fe042783          	lw	a5,-32(s0)
    80003938:	2701                	sext.w	a4,a4
    8000393a:	2781                	sext.w	a5,a5
    8000393c:	00f70763          	beq	a4,a5,8000394a <verify+0x82>
/cva6/verif/sim/../tests/custom/common/util.h:20 (discriminator 1)
    80003940:	fec42783          	lw	a5,-20(s0)
    80003944:	2785                	addiw	a5,a5,1
    80003946:	2781                	sext.w	a5,a5
/cva6/verif/sim/../tests/custom/common/util.h:20
    80003948:	a059                	j	800039ce <verify+0x106>
/cva6/verif/sim/../tests/custom/common/util.h:21
    if (t1 != v1) return i+2;
    8000394a:	fe442783          	lw	a5,-28(s0)
    8000394e:	873e                	mv	a4,a5
    80003950:	fdc42783          	lw	a5,-36(s0)
    80003954:	2701                	sext.w	a4,a4
    80003956:	2781                	sext.w	a5,a5
    80003958:	00f70763          	beq	a4,a5,80003966 <verify+0x9e>
/cva6/verif/sim/../tests/custom/common/util.h:21 (discriminator 1)
    8000395c:	fec42783          	lw	a5,-20(s0)
    80003960:	2789                	addiw	a5,a5,2
    80003962:	2781                	sext.w	a5,a5
/cva6/verif/sim/../tests/custom/common/util.h:21
    80003964:	a0ad                	j	800039ce <verify+0x106>
/cva6/verif/sim/../tests/custom/common/util.h:16 (discriminator 2)
  for (i = 0; i < n/2*2; i+=2)
    80003966:	fec42783          	lw	a5,-20(s0)
    8000396a:	2789                	addiw	a5,a5,2
    8000396c:	fef42623          	sw	a5,-20(s0)
/cva6/verif/sim/../tests/custom/common/util.h:16 (discriminator 1)
    80003970:	fcc42783          	lw	a5,-52(s0)
    80003974:	01f7d71b          	srliw	a4,a5,0x1f
    80003978:	9fb9                	addw	a5,a5,a4
    8000397a:	4017d79b          	sraiw	a5,a5,0x1
    8000397e:	2781                	sext.w	a5,a5
    80003980:	0017979b          	slliw	a5,a5,0x1
    80003984:	0007871b          	sext.w	a4,a5
    80003988:	fec42783          	lw	a5,-20(s0)
    8000398c:	2781                	sext.w	a5,a5
    8000398e:	f4e7cae3          	blt	a5,a4,800038e2 <verify+0x1a>
/cva6/verif/sim/../tests/custom/common/util.h:23
  }
  if (n % 2 != 0 && test[n-1] != verify[n-1])
    80003992:	fcc42783          	lw	a5,-52(s0)
    80003996:	8b85                	andi	a5,a5,1
    80003998:	2781                	sext.w	a5,a5
    8000399a:	cb8d                	beqz	a5,800039cc <verify+0x104>
/cva6/verif/sim/../tests/custom/common/util.h:23 (discriminator 1)
    8000399c:	fcc42783          	lw	a5,-52(s0)
    800039a0:	078a                	slli	a5,a5,0x2
    800039a2:	17f1                	addi	a5,a5,-4
    800039a4:	fc043703          	ld	a4,-64(s0)
    800039a8:	97ba                	add	a5,a5,a4
    800039aa:	439c                	lw	a5,0(a5)
    800039ac:	0007869b          	sext.w	a3,a5
    800039b0:	fcc42783          	lw	a5,-52(s0)
    800039b4:	078a                	slli	a5,a5,0x2
    800039b6:	17f1                	addi	a5,a5,-4
    800039b8:	fb843703          	ld	a4,-72(s0)
    800039bc:	97ba                	add	a5,a5,a4
    800039be:	439c                	lw	a5,0(a5)
    800039c0:	8736                	mv	a4,a3
    800039c2:	00f70563          	beq	a4,a5,800039cc <verify+0x104>
/cva6/verif/sim/../tests/custom/common/util.h:24
    return n;
    800039c6:	fcc42783          	lw	a5,-52(s0)
    800039ca:	a011                	j	800039ce <verify+0x106>
/cva6/verif/sim/../tests/custom/common/util.h:25
  return 0;
    800039cc:	4781                	li	a5,0
/cva6/verif/sim/../tests/custom/common/util.h:26
}
    800039ce:	853e                	mv	a0,a5
    800039d0:	6426                	ld	s0,72(sp)
    800039d2:	6161                	addi	sp,sp,80
    800039d4:	8082                	ret

00000000800039d6 <verifyDouble>:
verifyDouble():
/cva6/verif/sim/../tests/custom/common/util.h:29

static int verifyDouble(int n, const volatile double* test, const double* verify)
{
    800039d6:	711d                	addi	sp,sp,-96
    800039d8:	eca2                	sd	s0,88(sp)
    800039da:	1080                	addi	s0,sp,96
    800039dc:	87aa                	mv	a5,a0
    800039de:	fab43823          	sd	a1,-80(s0)
    800039e2:	fac43423          	sd	a2,-88(s0)
    800039e6:	faf42e23          	sw	a5,-68(s0)
/cva6/verif/sim/../tests/custom/common/util.h:32
  int i;
  // Unrolled for faster verification
  for (i = 0; i < n/2*2; i+=2)
    800039ea:	fe042623          	sw	zero,-20(s0)
    800039ee:	a06d                	j	80003a98 <verifyDouble+0xc2>
/cva6/verif/sim/../tests/custom/common/util.h:34
  {
    double t0 = test[i], t1 = test[i+1];
    800039f0:	fec42783          	lw	a5,-20(s0)
    800039f4:	078e                	slli	a5,a5,0x3
    800039f6:	fb043703          	ld	a4,-80(s0)
    800039fa:	97ba                	add	a5,a5,a4
    800039fc:	239c                	fld	fa5,0(a5)
    800039fe:	fef43027          	fsd	fa5,-32(s0)
    80003a02:	fec42783          	lw	a5,-20(s0)
    80003a06:	0785                	addi	a5,a5,1
    80003a08:	078e                	slli	a5,a5,0x3
    80003a0a:	fb043703          	ld	a4,-80(s0)
    80003a0e:	97ba                	add	a5,a5,a4
    80003a10:	239c                	fld	fa5,0(a5)
    80003a12:	fcf43c27          	fsd	fa5,-40(s0)
/cva6/verif/sim/../tests/custom/common/util.h:35
    double v0 = verify[i], v1 = verify[i+1];
    80003a16:	fec42783          	lw	a5,-20(s0)
    80003a1a:	078e                	slli	a5,a5,0x3
    80003a1c:	fa843703          	ld	a4,-88(s0)
    80003a20:	97ba                	add	a5,a5,a4
    80003a22:	239c                	fld	fa5,0(a5)
    80003a24:	fcf43827          	fsd	fa5,-48(s0)
    80003a28:	fec42783          	lw	a5,-20(s0)
    80003a2c:	0785                	addi	a5,a5,1
    80003a2e:	078e                	slli	a5,a5,0x3
    80003a30:	fa843703          	ld	a4,-88(s0)
    80003a34:	97ba                	add	a5,a5,a4
    80003a36:	239c                	fld	fa5,0(a5)
    80003a38:	fcf43427          	fsd	fa5,-56(s0)
/cva6/verif/sim/../tests/custom/common/util.h:36
    int eq1 = t0 == v0, eq2 = t1 == v1;
    80003a3c:	fe043707          	fld	fa4,-32(s0)
    80003a40:	fd043787          	fld	fa5,-48(s0)
    80003a44:	a2f727d3          	feq.d	a5,fa4,fa5
    80003a48:	00f037b3          	snez	a5,a5
    80003a4c:	0ff7f793          	andi	a5,a5,255
    80003a50:	fcf42223          	sw	a5,-60(s0)
    80003a54:	fd843707          	fld	fa4,-40(s0)
    80003a58:	fc843787          	fld	fa5,-56(s0)
    80003a5c:	a2f727d3          	feq.d	a5,fa4,fa5
    80003a60:	00f037b3          	snez	a5,a5
    80003a64:	0ff7f793          	andi	a5,a5,255
    80003a68:	fcf42023          	sw	a5,-64(s0)
/cva6/verif/sim/../tests/custom/common/util.h:37
    if (!(eq1 & eq2)) return i+1+eq1;
    80003a6c:	fc442783          	lw	a5,-60(s0)
    80003a70:	873e                	mv	a4,a5
    80003a72:	fc042783          	lw	a5,-64(s0)
    80003a76:	8ff9                	and	a5,a5,a4
    80003a78:	2781                	sext.w	a5,a5
    80003a7a:	eb91                	bnez	a5,80003a8e <verifyDouble+0xb8>
/cva6/verif/sim/../tests/custom/common/util.h:37 (discriminator 1)
    80003a7c:	fec42783          	lw	a5,-20(s0)
    80003a80:	2785                	addiw	a5,a5,1
    80003a82:	2781                	sext.w	a5,a5
    80003a84:	fc442703          	lw	a4,-60(s0)
    80003a88:	9fb9                	addw	a5,a5,a4
    80003a8a:	2781                	sext.w	a5,a5
/cva6/verif/sim/../tests/custom/common/util.h:37
    80003a8c:	a09d                	j	80003af2 <verifyDouble+0x11c>
/cva6/verif/sim/../tests/custom/common/util.h:32 (discriminator 2)
  for (i = 0; i < n/2*2; i+=2)
    80003a8e:	fec42783          	lw	a5,-20(s0)
    80003a92:	2789                	addiw	a5,a5,2
    80003a94:	fef42623          	sw	a5,-20(s0)
/cva6/verif/sim/../tests/custom/common/util.h:32 (discriminator 1)
    80003a98:	fbc42783          	lw	a5,-68(s0)
    80003a9c:	01f7d71b          	srliw	a4,a5,0x1f
    80003aa0:	9fb9                	addw	a5,a5,a4
    80003aa2:	4017d79b          	sraiw	a5,a5,0x1
    80003aa6:	2781                	sext.w	a5,a5
    80003aa8:	0017979b          	slliw	a5,a5,0x1
    80003aac:	0007871b          	sext.w	a4,a5
    80003ab0:	fec42783          	lw	a5,-20(s0)
    80003ab4:	2781                	sext.w	a5,a5
    80003ab6:	f2e7cde3          	blt	a5,a4,800039f0 <verifyDouble+0x1a>
/cva6/verif/sim/../tests/custom/common/util.h:39
  }
  if (n % 2 != 0 && test[n-1] != verify[n-1])
    80003aba:	fbc42783          	lw	a5,-68(s0)
    80003abe:	8b85                	andi	a5,a5,1
    80003ac0:	2781                	sext.w	a5,a5
    80003ac2:	c79d                	beqz	a5,80003af0 <verifyDouble+0x11a>
/cva6/verif/sim/../tests/custom/common/util.h:39 (discriminator 1)
    80003ac4:	fbc42783          	lw	a5,-68(s0)
    80003ac8:	078e                	slli	a5,a5,0x3
    80003aca:	17e1                	addi	a5,a5,-8
    80003acc:	fb043703          	ld	a4,-80(s0)
    80003ad0:	97ba                	add	a5,a5,a4
    80003ad2:	2398                	fld	fa4,0(a5)
    80003ad4:	fbc42783          	lw	a5,-68(s0)
    80003ad8:	078e                	slli	a5,a5,0x3
    80003ada:	17e1                	addi	a5,a5,-8
    80003adc:	fa843703          	ld	a4,-88(s0)
    80003ae0:	97ba                	add	a5,a5,a4
    80003ae2:	239c                	fld	fa5,0(a5)
    80003ae4:	a2f727d3          	feq.d	a5,fa4,fa5
    80003ae8:	e781                	bnez	a5,80003af0 <verifyDouble+0x11a>
/cva6/verif/sim/../tests/custom/common/util.h:40
    return n;
    80003aea:	fbc42783          	lw	a5,-68(s0)
    80003aee:	a011                	j	80003af2 <verifyDouble+0x11c>
/cva6/verif/sim/../tests/custom/common/util.h:41
  return 0;
    80003af0:	4781                	li	a5,0
/cva6/verif/sim/../tests/custom/common/util.h:42
}
    80003af2:	853e                	mv	a0,a5
    80003af4:	6466                	ld	s0,88(sp)
    80003af6:	6125                	addi	sp,sp,96
    80003af8:	8082                	ret

0000000080003afa <barrier>:
barrier():
/cva6/verif/sim/../tests/custom/common/util.h:45

static void __attribute__((noinline)) barrier(int ncores)
{
    80003afa:	1101                	addi	sp,sp,-32
    80003afc:	ec22                	sd	s0,24(sp)
    80003afe:	1000                	addi	s0,sp,32
    80003b00:	87aa                	mv	a5,a0
    80003b02:	fef42623          	sw	a5,-20(s0)
/cva6/verif/sim/../tests/custom/common/util.h:51
#ifdef __riscv_atomic // __sync_* builtins require A extension
  static volatile int sense;
  static volatile int count;
  static __thread int threadsense;

  __sync_synchronize();
    80003b06:	0ff0000f          	fence
/cva6/verif/sim/../tests/custom/common/util.h:53

  threadsense = !threadsense;
    80003b0a:	00022783          	lw	a5,0(tp) # 0 <threadsense.4>
    80003b0e:	0017b793          	seqz	a5,a5
    80003b12:	0ff7f793          	andi	a5,a5,255
    80003b16:	0007871b          	sext.w	a4,a5
    80003b1a:	00e22023          	sw	a4,0(tp) # 0 <threadsense.4>
/cva6/verif/sim/../tests/custom/common/util.h:54
  if (__sync_fetch_and_add(&count, 1) == ncores-1)
    80003b1e:	00002797          	auipc	a5,0x2
    80003b22:	50278793          	addi	a5,a5,1282 # 80006020 <count.1>
    80003b26:	4705                	li	a4,1
    80003b28:	0f50000f          	fence	iorw,ow
    80003b2c:	04e7a6af          	amoadd.w.aq	a3,a4,(a5)
    80003b30:	0006879b          	sext.w	a5,a3
/cva6/verif/sim/../tests/custom/common/util.h:54 (discriminator 1)
    80003b34:	0007871b          	sext.w	a4,a5
    80003b38:	fec42783          	lw	a5,-20(s0)
    80003b3c:	37fd                	addiw	a5,a5,-1
    80003b3e:	2781                	sext.w	a5,a5
    80003b40:	02f71063          	bne	a4,a5,80003b60 <barrier+0x66>
/cva6/verif/sim/../tests/custom/common/util.h:56
  {
    count = 0;
    80003b44:	00002797          	auipc	a5,0x2
    80003b48:	4dc78793          	addi	a5,a5,1244 # 80006020 <count.1>
    80003b4c:	0007a023          	sw	zero,0(a5)
/cva6/verif/sim/../tests/custom/common/util.h:57
    sense = threadsense;
    80003b50:	00022703          	lw	a4,0(tp) # 0 <threadsense.4>
    80003b54:	00002797          	auipc	a5,0x2
    80003b58:	4d078793          	addi	a5,a5,1232 # 80006024 <sense.0>
    80003b5c:	c398                	sw	a4,0(a5)
    80003b5e:	a829                	j	80003b78 <barrier+0x7e>
/cva6/verif/sim/../tests/custom/common/util.h:59
  }
  else while(sense != threadsense)
    80003b60:	0001                	nop
/cva6/verif/sim/../tests/custom/common/util.h:59 (discriminator 1)
    80003b62:	00002797          	auipc	a5,0x2
    80003b66:	4c278793          	addi	a5,a5,1218 # 80006024 <sense.0>
    80003b6a:	439c                	lw	a5,0(a5)
    80003b6c:	0007871b          	sext.w	a4,a5
    80003b70:	00022783          	lw	a5,0(tp) # 0 <threadsense.4>
    80003b74:	fef717e3          	bne	a4,a5,80003b62 <barrier+0x68>
/cva6/verif/sim/../tests/custom/common/util.h:62
    ;

  __sync_synchronize();
    80003b78:	0ff0000f          	fence
/cva6/verif/sim/../tests/custom/common/util.h:64
#endif // __riscv_atomic
}
    80003b7c:	0001                	nop
    80003b7e:	6462                	ld	s0,24(sp)
    80003b80:	6105                	addi	sp,sp,32
    80003b82:	8082                	ret

0000000080003b84 <lfsr>:
lfsr():
/cva6/verif/sim/../tests/custom/common/util.h:67

static uint64_t lfsr(uint64_t x)
{
    80003b84:	7179                	addi	sp,sp,-48
    80003b86:	f422                	sd	s0,40(sp)
    80003b88:	1800                	addi	s0,sp,48
    80003b8a:	fca43c23          	sd	a0,-40(s0)
/cva6/verif/sim/../tests/custom/common/util.h:68
  uint64_t bit = (x ^ (x >> 1)) & 1;
    80003b8e:	fd843783          	ld	a5,-40(s0)
    80003b92:	0017d713          	srli	a4,a5,0x1
    80003b96:	fd843783          	ld	a5,-40(s0)
    80003b9a:	8fb9                	xor	a5,a5,a4
    80003b9c:	8b85                	andi	a5,a5,1
    80003b9e:	fef43423          	sd	a5,-24(s0)
/cva6/verif/sim/../tests/custom/common/util.h:69
  return (x >> 1) | (bit << 62);
    80003ba2:	fd843783          	ld	a5,-40(s0)
    80003ba6:	0017d713          	srli	a4,a5,0x1
    80003baa:	fe843783          	ld	a5,-24(s0)
    80003bae:	17fa                	slli	a5,a5,0x3e
    80003bb0:	8fd9                	or	a5,a5,a4
/cva6/verif/sim/../tests/custom/common/util.h:70
}
    80003bb2:	853e                	mv	a0,a5
    80003bb4:	7422                	ld	s0,40(sp)
    80003bb6:	6145                	addi	sp,sp,48
    80003bb8:	8082                	ret

0000000080003bba <insn_len>:
insn_len():
/cva6/verif/sim/../tests/custom/common/util.h:73

static uintptr_t insn_len(uintptr_t pc)
{
    80003bba:	1101                	addi	sp,sp,-32
    80003bbc:	ec22                	sd	s0,24(sp)
    80003bbe:	1000                	addi	s0,sp,32
    80003bc0:	fea43423          	sd	a0,-24(s0)
/cva6/verif/sim/../tests/custom/common/util.h:74
  return (*(unsigned short*)pc & 3) ? 4 : 2;
    80003bc4:	fe843783          	ld	a5,-24(s0)
    80003bc8:	0007d783          	lhu	a5,0(a5)
    80003bcc:	2781                	sext.w	a5,a5
    80003bce:	8b8d                	andi	a5,a5,3
    80003bd0:	2781                	sext.w	a5,a5
    80003bd2:	c399                	beqz	a5,80003bd8 <insn_len+0x1e>
/cva6/verif/sim/../tests/custom/common/util.h:74 (discriminator 1)
    80003bd4:	4791                	li	a5,4
/cva6/verif/sim/../tests/custom/common/util.h:74
    80003bd6:	a011                	j	80003bda <insn_len+0x20>
/cva6/verif/sim/../tests/custom/common/util.h:74 (discriminator 2)
    80003bd8:	4789                	li	a5,2
/cva6/verif/sim/../tests/custom/common/util.h:75
}
    80003bda:	853e                	mv	a0,a5
    80003bdc:	6462                	ld	s0,24(sp)
    80003bde:	6105                	addi	sp,sp,32
    80003be0:	8082                	ret

0000000080003be2 <syscall>:
syscall():
/cva6/verif/sim/../tests/custom/common/syscalls.c:31
// - syscall index (93 dec for syscall_exit, cf. Spike values in
//   riscv-isa-sim/fesvr/syscall.cc:140 and ff.)
// - syscall args in the declaration order of the given syscall

static uintptr_t syscall(uintptr_t which, uintptr_t arg0, uintptr_t arg1, uintptr_t arg2)
{
    80003be2:	7171                	addi	sp,sp,-176
    80003be4:	f522                	sd	s0,168(sp)
    80003be6:	1900                	addi	s0,sp,176
    80003be8:	f6a43c23          	sd	a0,-136(s0)
    80003bec:	f6b43823          	sd	a1,-144(s0)
    80003bf0:	f6c43423          	sd	a2,-152(s0)
    80003bf4:	f6d43023          	sd	a3,-160(s0)
    80003bf8:	ff040793          	addi	a5,s0,-16
    80003bfc:	f4f43c23          	sd	a5,-168(s0)
    80003c00:	f5843783          	ld	a5,-168(s0)
    80003c04:	f9078793          	addi	a5,a5,-112
    80003c08:	03f78793          	addi	a5,a5,63
    80003c0c:	8399                	srli	a5,a5,0x6
    80003c0e:	079a                	slli	a5,a5,0x6
/cva6/verif/sim/../tests/custom/common/syscalls.c:34
  // Arguments in magic_mem have XLEN bits each.
  volatile uintptr_t magic_mem[8] __attribute__((aligned(64)));
  magic_mem[0] = which;
    80003c10:	f7843703          	ld	a4,-136(s0)
    80003c14:	e398                	sd	a4,0(a5)
/cva6/verif/sim/../tests/custom/common/syscalls.c:35
  magic_mem[1] = arg0;
    80003c16:	f7043703          	ld	a4,-144(s0)
    80003c1a:	e798                	sd	a4,8(a5)
/cva6/verif/sim/../tests/custom/common/syscalls.c:36
  magic_mem[2] = arg1;
    80003c1c:	f6843703          	ld	a4,-152(s0)
    80003c20:	eb98                	sd	a4,16(a5)
/cva6/verif/sim/../tests/custom/common/syscalls.c:37
  magic_mem[3] = arg2;
    80003c22:	f6043703          	ld	a4,-160(s0)
    80003c26:	ef98                	sd	a4,24(a5)
/cva6/verif/sim/../tests/custom/common/syscalls.c:39
#ifdef __riscv_atomic // __sync_synchronize requires A extension
  __sync_synchronize();
    80003c28:	0ff0000f          	fence
/cva6/verif/sim/../tests/custom/common/syscalls.c:49
  // - here tohost is guaranteed non-NULL because magic_mem is a valid RISC-V
  //   pointer.
  // - the environment acknowledges the env request by writing 0 into tohost.
  // - the completion of the request is signalled by the environment through
  //   a write of a non-zero value into fromhost.
  tohost = (((uint64_t) ((unsigned long int) magic_mem)) << 16) >> 16;    // clear the DEV and CMD bytes, clip payload.
    80003c2c:	86be                	mv	a3,a5
    80003c2e:	2b001713          	0x2b001713
    80003c32:	177d                	addi	a4,a4,-1
    80003c34:	8ef9                	and	a3,a3,a4
    80003c36:	ffffd717          	auipc	a4,0xffffd
    80003c3a:	3ca70713          	addi	a4,a4,970 # 80001000 <tohost>
    80003c3e:	e314                	sd	a3,0(a4)
/cva6/verif/sim/../tests/custom/common/syscalls.c:50
  while (fromhost == 0)
    80003c40:	0001                	nop
/cva6/verif/sim/../tests/custom/common/syscalls.c:50 (discriminator 1)
    80003c42:	ffffd717          	auipc	a4,0xffffd
    80003c46:	3fe70713          	addi	a4,a4,1022 # 80001040 <fromhost>
    80003c4a:	6318                	ld	a4,0(a4)
    80003c4c:	db7d                	beqz	a4,80003c42 <syscall+0x60>
/cva6/verif/sim/../tests/custom/common/syscalls.c:52
    ;
  fromhost = 0;
    80003c4e:	ffffd717          	auipc	a4,0xffffd
    80003c52:	3f270713          	addi	a4,a4,1010 # 80001040 <fromhost>
    80003c56:	00073023          	sd	zero,0(a4)
/cva6/verif/sim/../tests/custom/common/syscalls.c:55

#ifdef __riscv_atomic // __sync_synchronize requires A extension
  __sync_synchronize();
    80003c5a:	0ff0000f          	fence
/cva6/verif/sim/../tests/custom/common/syscalls.c:57
#endif
  return magic_mem[0];
    80003c5e:	639c                	ld	a5,0(a5)
/cva6/verif/sim/../tests/custom/common/syscalls.c:58
}
    80003c60:	853e                	mv	a0,a5
    80003c62:	742a                	ld	s0,168(sp)
    80003c64:	614d                	addi	sp,sp,176
    80003c66:	8082                	ret

0000000080003c68 <setStats>:
setStats():
/cva6/verif/sim/../tests/custom/common/syscalls.c:65
#define NUM_COUNTERS 2
static uintptr_t counters[NUM_COUNTERS];
static char* counter_names[NUM_COUNTERS];

void setStats(int enable)
{
    80003c68:	715d                	addi	sp,sp,-80
    80003c6a:	e4a2                	sd	s0,72(sp)
    80003c6c:	0880                	addi	s0,sp,80
    80003c6e:	87aa                	mv	a5,a0
    80003c70:	faf42e23          	sw	a5,-68(s0)
/cva6/verif/sim/../tests/custom/common/syscalls.c:66
  int i = 0;
    80003c74:	fc042e23          	sw	zero,-36(s0)
/cva6/verif/sim/../tests/custom/common/syscalls.c:74 (discriminator 1)
    uintptr_t csr = read_csr(name); \
    if (!enable) { csr -= counters[i]; counter_names[i] = #name; } \
    counters[i++] = csr; \
  } while (0)

  READ_CTR(mcycle);
    80003c78:	fdc42783          	lw	a5,-36(s0)
    80003c7c:	0007871b          	sext.w	a4,a5
    80003c80:	4785                	li	a5,1
    80003c82:	fee7cbe3          	blt	a5,a4,80003c78 <setStats+0x10>
/cva6/verif/sim/../tests/custom/common/syscalls.c:74 (discriminator 2)
    80003c86:	b00027f3          	csrr	a5,mcycle
    80003c8a:	fcf43823          	sd	a5,-48(s0)
    80003c8e:	fd043783          	ld	a5,-48(s0)
    80003c92:	fef43423          	sd	a5,-24(s0)
    80003c96:	fbc42783          	lw	a5,-68(s0)
    80003c9a:	2781                	sext.w	a5,a5
    80003c9c:	ef8d                	bnez	a5,80003cd6 <setStats+0x6e>
/cva6/verif/sim/../tests/custom/common/syscalls.c:74 (discriminator 3)
    80003c9e:	00002717          	auipc	a4,0x2
    80003ca2:	36270713          	addi	a4,a4,866 # 80006000 <counters>
    80003ca6:	fdc42783          	lw	a5,-36(s0)
    80003caa:	078e                	slli	a5,a5,0x3
    80003cac:	97ba                	add	a5,a5,a4
    80003cae:	639c                	ld	a5,0(a5)
    80003cb0:	fe843703          	ld	a4,-24(s0)
    80003cb4:	40f707b3          	sub	a5,a4,a5
    80003cb8:	fef43423          	sd	a5,-24(s0)
    80003cbc:	00002717          	auipc	a4,0x2
    80003cc0:	35470713          	addi	a4,a4,852 # 80006010 <counter_names>
    80003cc4:	fdc42783          	lw	a5,-36(s0)
    80003cc8:	078e                	slli	a5,a5,0x3
    80003cca:	97ba                	add	a5,a5,a4
    80003ccc:	00001717          	auipc	a4,0x1
    80003cd0:	33470713          	addi	a4,a4,820 # 80005000 <_end_text>
    80003cd4:	e398                	sd	a4,0(a5)
/cva6/verif/sim/../tests/custom/common/syscalls.c:74 (discriminator 5)
    80003cd6:	fdc42783          	lw	a5,-36(s0)
    80003cda:	0017871b          	addiw	a4,a5,1
    80003cde:	fce42e23          	sw	a4,-36(s0)
    80003ce2:	00002717          	auipc	a4,0x2
    80003ce6:	31e70713          	addi	a4,a4,798 # 80006000 <counters>
    80003cea:	078e                	slli	a5,a5,0x3
    80003cec:	97ba                	add	a5,a5,a4
    80003cee:	fe843703          	ld	a4,-24(s0)
    80003cf2:	e398                	sd	a4,0(a5)
/cva6/verif/sim/../tests/custom/common/syscalls.c:75 (discriminator 1)
  READ_CTR(minstret);
    80003cf4:	fdc42783          	lw	a5,-36(s0)
    80003cf8:	0007871b          	sext.w	a4,a5
    80003cfc:	4785                	li	a5,1
    80003cfe:	fee7cbe3          	blt	a5,a4,80003cf4 <setStats+0x8c>
/cva6/verif/sim/../tests/custom/common/syscalls.c:75 (discriminator 2)
    80003d02:	b02027f3          	csrr	a5,minstret
    80003d06:	fcf43423          	sd	a5,-56(s0)
    80003d0a:	fc843783          	ld	a5,-56(s0)
    80003d0e:	fef43023          	sd	a5,-32(s0)
    80003d12:	fbc42783          	lw	a5,-68(s0)
    80003d16:	2781                	sext.w	a5,a5
    80003d18:	ef8d                	bnez	a5,80003d52 <setStats+0xea>
/cva6/verif/sim/../tests/custom/common/syscalls.c:75 (discriminator 3)
    80003d1a:	00002717          	auipc	a4,0x2
    80003d1e:	2e670713          	addi	a4,a4,742 # 80006000 <counters>
    80003d22:	fdc42783          	lw	a5,-36(s0)
    80003d26:	078e                	slli	a5,a5,0x3
    80003d28:	97ba                	add	a5,a5,a4
    80003d2a:	639c                	ld	a5,0(a5)
    80003d2c:	fe043703          	ld	a4,-32(s0)
    80003d30:	40f707b3          	sub	a5,a4,a5
    80003d34:	fef43023          	sd	a5,-32(s0)
    80003d38:	00002717          	auipc	a4,0x2
    80003d3c:	2d870713          	addi	a4,a4,728 # 80006010 <counter_names>
    80003d40:	fdc42783          	lw	a5,-36(s0)
    80003d44:	078e                	slli	a5,a5,0x3
    80003d46:	97ba                	add	a5,a5,a4
    80003d48:	00001717          	auipc	a4,0x1
    80003d4c:	2c070713          	addi	a4,a4,704 # 80005008 <_end_text+0x8>
    80003d50:	e398                	sd	a4,0(a5)
/cva6/verif/sim/../tests/custom/common/syscalls.c:75 (discriminator 5)
    80003d52:	fdc42783          	lw	a5,-36(s0)
    80003d56:	0017871b          	addiw	a4,a5,1
    80003d5a:	fce42e23          	sw	a4,-36(s0)
    80003d5e:	00002717          	auipc	a4,0x2
    80003d62:	2a270713          	addi	a4,a4,674 # 80006000 <counters>
    80003d66:	078e                	slli	a5,a5,0x3
    80003d68:	97ba                	add	a5,a5,a4
    80003d6a:	fe043703          	ld	a4,-32(s0)
    80003d6e:	e398                	sd	a4,0(a5)
/cva6/verif/sim/../tests/custom/common/syscalls.c:78

#undef READ_CTR
}
    80003d70:	0001                	nop
    80003d72:	6426                	ld	s0,72(sp)
    80003d74:	6161                	addi	sp,sp,80
    80003d76:	8082                	ret

0000000080003d78 <getStats>:
getStats():
/cva6/verif/sim/../tests/custom/common/syscalls.c:81

uintptr_t getStats(int counterid)
{
    80003d78:	1101                	addi	sp,sp,-32
    80003d7a:	ec22                	sd	s0,24(sp)
    80003d7c:	1000                	addi	s0,sp,32
    80003d7e:	87aa                	mv	a5,a0
    80003d80:	fef42623          	sw	a5,-20(s0)
/cva6/verif/sim/../tests/custom/common/syscalls.c:82
  return counters[counterid];
    80003d84:	00002717          	auipc	a4,0x2
    80003d88:	27c70713          	addi	a4,a4,636 # 80006000 <counters>
    80003d8c:	fec42783          	lw	a5,-20(s0)
    80003d90:	078e                	slli	a5,a5,0x3
    80003d92:	97ba                	add	a5,a5,a4
    80003d94:	639c                	ld	a5,0(a5)
/cva6/verif/sim/../tests/custom/common/syscalls.c:83
}
    80003d96:	853e                	mv	a0,a5
    80003d98:	6462                	ld	s0,24(sp)
    80003d9a:	6105                	addi	sp,sp,32
    80003d9c:	8082                	ret

0000000080003d9e <tohost_exit>:
tohost_exit():
/cva6/verif/sim/../tests/custom/common/syscalls.c:86

void __attribute__((noreturn)) tohost_exit(uintptr_t code)
{
    80003d9e:	1101                	addi	sp,sp,-32
    80003da0:	ec22                	sd	s0,24(sp)
    80003da2:	1000                	addi	s0,sp,32
    80003da4:	fea43423          	sd	a0,-24(s0)
/cva6/verif/sim/../tests/custom/common/syscalls.c:90
  // Simply write PASS/FAIL result into 'tohost'.
  // Left shift 'code' by 1 and set bit 0 to 1, but leave the 16 uppermost bits clear
  // so that the syscall is properly recognized even if 'code' value is very large.
  tohost = ((((uint64_t) code) << 17) >> 16) | 1;
    80003da8:	fe843783          	ld	a5,-24(s0)
    80003dac:	07c6                	slli	a5,a5,0x11
    80003dae:	83c1                	srli	a5,a5,0x10
    80003db0:	0017e713          	ori	a4,a5,1
    80003db4:	ffffd797          	auipc	a5,0xffffd
    80003db8:	24c78793          	addi	a5,a5,588 # 80001000 <tohost>
    80003dbc:	e398                	sd	a4,0(a5)
/cva6/verif/sim/../tests/custom/common/syscalls.c:95

  // Do not care about the value returned by host.
  // Leave 1 cycle of slack (one NOP instruction) to help debugging
  // the termination mechanism if needed.
  __asm__("nop\n\t");
    80003dbe:	0001                	nop
/cva6/verif/sim/../tests/custom/common/syscalls.c:98

  // Go into an endless loop if the write into 'tohost' did not terminate the simulation.
  while (1);
    80003dc0:	a001                	j	80003dc0 <tohost_exit+0x22>

0000000080003dc2 <handle_trap>:
handle_trap():
/cva6/verif/sim/../tests/custom/common/syscalls.c:102
}

uintptr_t __attribute__((weak)) handle_trap(uintptr_t cause, uintptr_t epc, uintptr_t regs[32])
{
    80003dc2:	7179                	addi	sp,sp,-48
    80003dc4:	f406                	sd	ra,40(sp)
    80003dc6:	f022                	sd	s0,32(sp)
    80003dc8:	1800                	addi	s0,sp,48
    80003dca:	fea43423          	sd	a0,-24(s0)
    80003dce:	feb43023          	sd	a1,-32(s0)
    80003dd2:	fcc43c23          	sd	a2,-40(s0)
/cva6/verif/sim/../tests/custom/common/syscalls.c:103
  tohost_exit(1337);
    80003dd6:	53900513          	li	a0,1337
    80003dda:	fc5ff0ef          	jal	ra,80003d9e <tohost_exit>

0000000080003dde <exit>:
exit():
/cva6/verif/sim/../tests/custom/common/syscalls.c:107
}

void exit(int code)
{
    80003dde:	1101                	addi	sp,sp,-32
    80003de0:	ec06                	sd	ra,24(sp)
    80003de2:	e822                	sd	s0,16(sp)
    80003de4:	1000                	addi	s0,sp,32
    80003de6:	87aa                	mv	a5,a0
    80003de8:	fef42623          	sw	a5,-20(s0)
/cva6/verif/sim/../tests/custom/common/syscalls.c:108
  tohost_exit(code);
    80003dec:	fec42783          	lw	a5,-20(s0)
    80003df0:	853e                	mv	a0,a5
    80003df2:	fadff0ef          	jal	ra,80003d9e <tohost_exit>

0000000080003df6 <abort>:
abort():
/cva6/verif/sim/../tests/custom/common/syscalls.c:112
}

void abort()
{
    80003df6:	1141                	addi	sp,sp,-16
    80003df8:	e406                	sd	ra,8(sp)
    80003dfa:	e022                	sd	s0,0(sp)
    80003dfc:	0800                	addi	s0,sp,16
/cva6/verif/sim/../tests/custom/common/syscalls.c:113
  exit(128 + SIGABRT);
    80003dfe:	08600513          	li	a0,134
    80003e02:	fddff0ef          	jal	ra,80003dde <exit>

0000000080003e06 <printstr>:
printstr():
/cva6/verif/sim/../tests/custom/common/syscalls.c:117
}

void printstr(const char* s)
{
    80003e06:	7179                	addi	sp,sp,-48
    80003e08:	f406                	sd	ra,40(sp)
    80003e0a:	f022                	sd	s0,32(sp)
    80003e0c:	ec26                	sd	s1,24(sp)
    80003e0e:	1800                	addi	s0,sp,48
    80003e10:	fca43c23          	sd	a0,-40(s0)
/cva6/verif/sim/../tests/custom/common/syscalls.c:119
#if !NOPRINT
  syscall(SYS_write, 1, (uintptr_t)s, strlen(s));
    80003e14:	fd843483          	ld	s1,-40(s0)
    80003e18:	fd843503          	ld	a0,-40(s0)
    80003e1c:	2cf000ef          	jal	ra,800048ea <strlen>
    80003e20:	87aa                	mv	a5,a0
/cva6/verif/sim/../tests/custom/common/syscalls.c:119 (discriminator 1)
    80003e22:	86be                	mv	a3,a5
    80003e24:	8626                	mv	a2,s1
    80003e26:	4585                	li	a1,1
    80003e28:	04000513          	li	a0,64
    80003e2c:	db7ff0ef          	jal	ra,80003be2 <syscall>
/cva6/verif/sim/../tests/custom/common/syscalls.c:121
#endif
}
    80003e30:	0001                	nop
    80003e32:	70a2                	ld	ra,40(sp)
    80003e34:	7402                	ld	s0,32(sp)
    80003e36:	64e2                	ld	s1,24(sp)
    80003e38:	6145                	addi	sp,sp,48
    80003e3a:	8082                	ret

0000000080003e3c <thread_entry>:
thread_entry():
/cva6/verif/sim/../tests/custom/common/syscalls.c:124

void __attribute__((weak)) thread_entry(int cid, int nc)
{
    80003e3c:	1101                	addi	sp,sp,-32
    80003e3e:	ec22                	sd	s0,24(sp)
    80003e40:	1000                	addi	s0,sp,32
    80003e42:	87aa                	mv	a5,a0
    80003e44:	872e                	mv	a4,a1
    80003e46:	fef42623          	sw	a5,-20(s0)
    80003e4a:	87ba                	mv	a5,a4
    80003e4c:	fef42423          	sw	a5,-24(s0)
/cva6/verif/sim/../tests/custom/common/syscalls.c:127
  // multi-threaded programs override this function.
  // for the case of single-threaded programs, only let core 0 proceed.
  while (cid != 0);
    80003e50:	0001                	nop
/cva6/verif/sim/../tests/custom/common/syscalls.c:127 (discriminator 1)
    80003e52:	fec42783          	lw	a5,-20(s0)
    80003e56:	2781                	sext.w	a5,a5
    80003e58:	ffed                	bnez	a5,80003e52 <thread_entry+0x16>
/cva6/verif/sim/../tests/custom/common/syscalls.c:128
}
    80003e5a:	0001                	nop
    80003e5c:	0001                	nop
    80003e5e:	6462                	ld	s0,24(sp)
    80003e60:	6105                	addi	sp,sp,32
    80003e62:	8082                	ret
main():
/cva6/verif/sim/../tests/custom/common/syscalls.c:131

int __attribute__((weak)) main(int argc, char** argv)
{
    80003e64:	1101                	addi	sp,sp,-32
    80003e66:	ec06                	sd	ra,24(sp)
    80003e68:	e822                	sd	s0,16(sp)
    80003e6a:	1000                	addi	s0,sp,32
    80003e6c:	87aa                	mv	a5,a0
    80003e6e:	feb43023          	sd	a1,-32(s0)
    80003e72:	fef42623          	sw	a5,-20(s0)
/cva6/verif/sim/../tests/custom/common/syscalls.c:133
  // single-threaded programs override this function.
  printstr("Implement main(), foo!\n");
    80003e76:	00001517          	auipc	a0,0x1
    80003e7a:	1a250513          	addi	a0,a0,418 # 80005018 <_end_text+0x18>
    80003e7e:	f89ff0ef          	jal	ra,80003e06 <printstr>
/cva6/verif/sim/../tests/custom/common/syscalls.c:134
  return -1;
    80003e82:	57fd                	li	a5,-1
/cva6/verif/sim/../tests/custom/common/syscalls.c:135
}
    80003e84:	853e                	mv	a0,a5
    80003e86:	60e2                	ld	ra,24(sp)
    80003e88:	6442                	ld	s0,16(sp)
    80003e8a:	6105                	addi	sp,sp,32
    80003e8c:	8082                	ret

0000000080003e8e <init_tls>:
init_tls():
/cva6/verif/sim/../tests/custom/common/syscalls.c:138

static void init_tls()
{
    80003e8e:	1101                	addi	sp,sp,-32
    80003e90:	ec06                	sd	ra,24(sp)
    80003e92:	e822                	sd	s0,16(sp)
    80003e94:	1000                	addi	s0,sp,32
/cva6/verif/sim/../tests/custom/common/syscalls.c:140
  extern char _tdata_begin, _tdata_end, _tbss_end;
  size_t tdata_size = &_tdata_end - &_tdata_begin;
    80003e96:	00002717          	auipc	a4,0x2
    80003e9a:	19270713          	addi	a4,a4,402 # 80006028 <_tdata_begin>
    80003e9e:	00002797          	auipc	a5,0x2
    80003ea2:	18a78793          	addi	a5,a5,394 # 80006028 <_tdata_begin>
    80003ea6:	40f707b3          	sub	a5,a4,a5
    80003eaa:	fef43423          	sd	a5,-24(s0)
/cva6/verif/sim/../tests/custom/common/syscalls.c:141
  memcpy(thread_pointer, &_tdata_begin, tdata_size);
    80003eae:	8792                	mv	a5,tp
    80003eb0:	fe843603          	ld	a2,-24(s0)
    80003eb4:	00002597          	auipc	a1,0x2
    80003eb8:	17458593          	addi	a1,a1,372 # 80006028 <_tdata_begin>
    80003ebc:	853e                	mv	a0,a5
    80003ebe:	0a7000ef          	jal	ra,80004764 <memcpy>
/cva6/verif/sim/../tests/custom/common/syscalls.c:142
  size_t tbss_size = &_tbss_end - &_tdata_end;
    80003ec2:	8c418713          	addi	a4,gp,-1852 # 800060c4 <_tbss_end>
    80003ec6:	00002797          	auipc	a5,0x2
    80003eca:	16278793          	addi	a5,a5,354 # 80006028 <_tdata_begin>
    80003ece:	40f707b3          	sub	a5,a4,a5
    80003ed2:	fef43023          	sd	a5,-32(s0)
/cva6/verif/sim/../tests/custom/common/syscalls.c:143
  memset(thread_pointer + tdata_size, 0, tbss_size);
    80003ed6:	8712                	mv	a4,tp
    80003ed8:	fe843783          	ld	a5,-24(s0)
    80003edc:	97ba                	add	a5,a5,a4
    80003ede:	fe043603          	ld	a2,-32(s0)
    80003ee2:	4581                	li	a1,0
    80003ee4:	853e                	mv	a0,a5
    80003ee6:	137000ef          	jal	ra,8000481c <memset>
/cva6/verif/sim/../tests/custom/common/syscalls.c:144
}
    80003eea:	0001                	nop
    80003eec:	60e2                	ld	ra,24(sp)
    80003eee:	6442                	ld	s0,16(sp)
    80003ef0:	6105                	addi	sp,sp,32
    80003ef2:	8082                	ret

0000000080003ef4 <_init>:
_init():
/cva6/verif/sim/../tests/custom/common/syscalls.c:147

void _init(int cid, int nc)
{
    80003ef4:	7171                	addi	sp,sp,-176
    80003ef6:	f506                	sd	ra,168(sp)
    80003ef8:	f122                	sd	s0,160(sp)
    80003efa:	ed26                	sd	s1,152(sp)
    80003efc:	1900                	addi	s0,sp,176
    80003efe:	87aa                	mv	a5,a0
    80003f00:	872e                	mv	a4,a1
    80003f02:	f4f42e23          	sw	a5,-164(s0)
    80003f06:	87ba                	mv	a5,a4
    80003f08:	f4f42c23          	sw	a5,-168(s0)
    80003f0c:	fe040793          	addi	a5,s0,-32
    80003f10:	f4f43823          	sd	a5,-176(s0)
    80003f14:	f5043783          	ld	a5,-176(s0)
    80003f18:	f8078793          	addi	a5,a5,-128
    80003f1c:	03f78793          	addi	a5,a5,63
    80003f20:	8399                	srli	a5,a5,0x6
    80003f22:	00679493          	slli	s1,a5,0x6
/cva6/verif/sim/../tests/custom/common/syscalls.c:148
  init_tls();
    80003f26:	f69ff0ef          	jal	ra,80003e8e <init_tls>
/cva6/verif/sim/../tests/custom/common/syscalls.c:149
  thread_entry(cid, nc);
    80003f2a:	f5842703          	lw	a4,-168(s0)
    80003f2e:	f5c42783          	lw	a5,-164(s0)
    80003f32:	85ba                	mv	a1,a4
    80003f34:	853e                	mv	a0,a5
    80003f36:	f07ff0ef          	jal	ra,80003e3c <thread_entry>
/cva6/verif/sim/../tests/custom/common/syscalls.c:152

  // only single-threaded programs should ever get here.
  int ret = main(0, 0);
    80003f3a:	4581                	li	a1,0
    80003f3c:	4501                	li	a0,0
    80003f3e:	8c2ff0ef          	jal	ra,80003000 <main>
    80003f42:	87aa                	mv	a5,a0
    80003f44:	fcf42823          	sw	a5,-48(s0)
/cva6/verif/sim/../tests/custom/common/syscalls.c:155

  char buf[NUM_COUNTERS * 32] __attribute__((aligned(64)));
  char* pbuf = buf;
    80003f48:	fc943c23          	sd	s1,-40(s0)
/cva6/verif/sim/../tests/custom/common/syscalls.c:156
  for (int i = 0; i < NUM_COUNTERS; i++)
    80003f4c:	fc042a23          	sw	zero,-44(s0)
    80003f50:	a095                	j	80003fb4 <_init+0xc0>
/cva6/verif/sim/../tests/custom/common/syscalls.c:157
    if (counters[i])
    80003f52:	00002717          	auipc	a4,0x2
    80003f56:	0ae70713          	addi	a4,a4,174 # 80006000 <counters>
    80003f5a:	fd442783          	lw	a5,-44(s0)
    80003f5e:	078e                	slli	a5,a5,0x3
    80003f60:	97ba                	add	a5,a5,a4
    80003f62:	639c                	ld	a5,0(a5)
    80003f64:	c3b9                	beqz	a5,80003faa <_init+0xb6>
/cva6/verif/sim/../tests/custom/common/syscalls.c:158
      pbuf += sprintf(pbuf, "%s = %zu\n", counter_names[i], counters[i]);
    80003f66:	00002717          	auipc	a4,0x2
    80003f6a:	0aa70713          	addi	a4,a4,170 # 80006010 <counter_names>
    80003f6e:	fd442783          	lw	a5,-44(s0)
    80003f72:	078e                	slli	a5,a5,0x3
    80003f74:	97ba                	add	a5,a5,a4
    80003f76:	6390                	ld	a2,0(a5)
    80003f78:	00002717          	auipc	a4,0x2
    80003f7c:	08870713          	addi	a4,a4,136 # 80006000 <counters>
    80003f80:	fd442783          	lw	a5,-44(s0)
    80003f84:	078e                	slli	a5,a5,0x3
    80003f86:	97ba                	add	a5,a5,a4
    80003f88:	639c                	ld	a5,0(a5)
    80003f8a:	86be                	mv	a3,a5
    80003f8c:	00001597          	auipc	a1,0x1
    80003f90:	0a458593          	addi	a1,a1,164 # 80005030 <_end_text+0x30>
    80003f94:	fd843503          	ld	a0,-40(s0)
    80003f98:	754000ef          	jal	ra,800046ec <sprintf>
    80003f9c:	87aa                	mv	a5,a0
/cva6/verif/sim/../tests/custom/common/syscalls.c:158 (discriminator 1)
    80003f9e:	873e                	mv	a4,a5
    80003fa0:	fd843783          	ld	a5,-40(s0)
    80003fa4:	97ba                	add	a5,a5,a4
    80003fa6:	fcf43c23          	sd	a5,-40(s0)
/cva6/verif/sim/../tests/custom/common/syscalls.c:156 (discriminator 2)
  for (int i = 0; i < NUM_COUNTERS; i++)
    80003faa:	fd442783          	lw	a5,-44(s0)
    80003fae:	2785                	addiw	a5,a5,1
    80003fb0:	fcf42a23          	sw	a5,-44(s0)
/cva6/verif/sim/../tests/custom/common/syscalls.c:156 (discriminator 1)
    80003fb4:	fd442783          	lw	a5,-44(s0)
    80003fb8:	0007871b          	sext.w	a4,a5
    80003fbc:	4785                	li	a5,1
    80003fbe:	f8e7dae3          	bge	a5,a4,80003f52 <_init+0x5e>
/cva6/verif/sim/../tests/custom/common/syscalls.c:159
  if (pbuf != buf)
    80003fc2:	fd843783          	ld	a5,-40(s0)
    80003fc6:	00f48563          	beq	s1,a5,80003fd0 <_init+0xdc>
/cva6/verif/sim/../tests/custom/common/syscalls.c:160
    printstr(buf);
    80003fca:	8526                	mv	a0,s1
    80003fcc:	e3bff0ef          	jal	ra,80003e06 <printstr>
/cva6/verif/sim/../tests/custom/common/syscalls.c:162

  exit(ret);
    80003fd0:	fd042783          	lw	a5,-48(s0)
    80003fd4:	853e                	mv	a0,a5
    80003fd6:	e09ff0ef          	jal	ra,80003dde <exit>

0000000080003fda <puts>:
puts():
/cva6/verif/sim/../tests/custom/common/syscalls.c:166
}

int puts(const char *s)
{
    80003fda:	7179                	addi	sp,sp,-48
    80003fdc:	f406                	sd	ra,40(sp)
    80003fde:	f022                	sd	s0,32(sp)
    80003fe0:	1800                	addi	s0,sp,48
    80003fe2:	fca43c23          	sd	a0,-40(s0)
/cva6/verif/sim/../tests/custom/common/syscalls.c:167
  const char *p = s;
    80003fe6:	fd843783          	ld	a5,-40(s0)
    80003fea:	fef43423          	sd	a5,-24(s0)
/cva6/verif/sim/../tests/custom/common/syscalls.c:169

  while (*p)
    80003fee:	a829                	j	80004008 <puts+0x2e>
/cva6/verif/sim/../tests/custom/common/syscalls.c:170
    putchar(*p++);
    80003ff0:	fe843783          	ld	a5,-24(s0)
    80003ff4:	00178713          	addi	a4,a5,1
    80003ff8:	fee43423          	sd	a4,-24(s0)
    80003ffc:	0007c783          	lbu	a5,0(a5)
    80004000:	2781                	sext.w	a5,a5
    80004002:	853e                	mv	a0,a5
    80004004:	020000ef          	jal	ra,80004024 <putchar>
/cva6/verif/sim/../tests/custom/common/syscalls.c:169
  while (*p)
    80004008:	fe843783          	ld	a5,-24(s0)
    8000400c:	0007c783          	lbu	a5,0(a5)
    80004010:	f3e5                	bnez	a5,80003ff0 <puts+0x16>
/cva6/verif/sim/../tests/custom/common/syscalls.c:172

  putchar('\n');
    80004012:	4529                	li	a0,10
    80004014:	010000ef          	jal	ra,80004024 <putchar>
/cva6/verif/sim/../tests/custom/common/syscalls.c:173
  return 0;
    80004018:	4781                	li	a5,0
/cva6/verif/sim/../tests/custom/common/syscalls.c:174
}
    8000401a:	853e                	mv	a0,a5
    8000401c:	70a2                	ld	ra,40(sp)
    8000401e:	7402                	ld	s0,32(sp)
    80004020:	6145                	addi	sp,sp,48
    80004022:	8082                	ret

0000000080004024 <putchar>:
putchar():
/cva6/verif/sim/../tests/custom/common/syscalls.c:178

#undef putchar
int putchar(int ch)
{
    80004024:	1101                	addi	sp,sp,-32
    80004026:	ec06                	sd	ra,24(sp)
    80004028:	e822                	sd	s0,16(sp)
    8000402a:	1000                	addi	s0,sp,32
    8000402c:	87aa                	mv	a5,a0
    8000402e:	fef42623          	sw	a5,-20(s0)
/cva6/verif/sim/../tests/custom/common/syscalls.c:183
#if !NOPRINT
  static __thread char buf[64] __attribute__((aligned(64)));
  static __thread int buflen = 0;

  buf[buflen++] = ch;
    80004032:	08022783          	lw	a5,128(tp) # 80 <buflen.2>
    80004036:	0017871b          	addiw	a4,a5,1
    8000403a:	0007069b          	sext.w	a3,a4
    8000403e:	08d22023          	sw	a3,128(tp) # 80 <buflen.2>
    80004042:	fec42703          	lw	a4,-20(s0)
    80004046:	0ff77713          	andi	a4,a4,255
    8000404a:	04020693          	addi	a3,tp,64 # 40 <buf.3>
    8000404e:	97b6                	add	a5,a5,a3
    80004050:	00e78023          	sb	a4,0(a5)
/cva6/verif/sim/../tests/custom/common/syscalls.c:185

  if (ch == '\n' || buflen == sizeof(buf))
    80004054:	fec42783          	lw	a5,-20(s0)
    80004058:	0007871b          	sext.w	a4,a5
    8000405c:	47a9                	li	a5,10
    8000405e:	00f70963          	beq	a4,a5,80004070 <putchar+0x4c>
/cva6/verif/sim/../tests/custom/common/syscalls.c:185 (discriminator 1)
    80004062:	08022783          	lw	a5,128(tp) # 80 <buflen.2>
    80004066:	873e                	mv	a4,a5
    80004068:	04000793          	li	a5,64
    8000406c:	00f71f63          	bne	a4,a5,8000408a <putchar+0x66>
/cva6/verif/sim/../tests/custom/common/syscalls.c:187
  {
    syscall(SYS_write, 1, (uintptr_t)buf, buflen);
    80004070:	04020713          	addi	a4,tp,64 # 40 <buf.3>
    80004074:	08022783          	lw	a5,128(tp) # 80 <buflen.2>
    80004078:	86be                	mv	a3,a5
    8000407a:	863a                	mv	a2,a4
    8000407c:	4585                	li	a1,1
    8000407e:	04000513          	li	a0,64
    80004082:	b61ff0ef          	jal	ra,80003be2 <syscall>
/cva6/verif/sim/../tests/custom/common/syscalls.c:188
    buflen = 0;
    80004086:	08022023          	sw	zero,128(tp) # 80 <buflen.2>
/cva6/verif/sim/../tests/custom/common/syscalls.c:192
  }
#endif

  return 0;
    8000408a:	4781                	li	a5,0
/cva6/verif/sim/../tests/custom/common/syscalls.c:193
}
    8000408c:	853e                	mv	a0,a5
    8000408e:	60e2                	ld	ra,24(sp)
    80004090:	6442                	ld	s0,16(sp)
    80004092:	6105                	addi	sp,sp,32
    80004094:	8082                	ret

0000000080004096 <printhex>:
printhex():
/cva6/verif/sim/../tests/custom/common/syscalls.c:196

void printhex(uint64_t x)
{
    80004096:	7139                	addi	sp,sp,-64
    80004098:	fc06                	sd	ra,56(sp)
    8000409a:	f822                	sd	s0,48(sp)
    8000409c:	0080                	addi	s0,sp,64
    8000409e:	fca43423          	sd	a0,-56(s0)
/cva6/verif/sim/../tests/custom/common/syscalls.c:199
  char str[17];
  int i;
  for (i = 0; i < 16; i++)
    800040a2:	fe042623          	sw	zero,-20(s0)
    800040a6:	a899                	j	800040fc <printhex+0x66>
/cva6/verif/sim/../tests/custom/common/syscalls.c:201
  {
    str[15-i] = (x & 0xF) + ((x & 0xF) < 10 ? '0' : 'a'-10);
    800040a8:	fc843783          	ld	a5,-56(s0)
    800040ac:	0ff7f793          	andi	a5,a5,255
    800040b0:	8bbd                	andi	a5,a5,15
    800040b2:	0ff7f713          	andi	a4,a5,255
    800040b6:	fc843783          	ld	a5,-56(s0)
    800040ba:	00f7f693          	andi	a3,a5,15
    800040be:	47a5                	li	a5,9
    800040c0:	00d7e563          	bltu	a5,a3,800040ca <printhex+0x34>
/cva6/verif/sim/../tests/custom/common/syscalls.c:201 (discriminator 1)
    800040c4:	03000793          	li	a5,48
    800040c8:	a019                	j	800040ce <printhex+0x38>
/cva6/verif/sim/../tests/custom/common/syscalls.c:201 (discriminator 2)
    800040ca:	05700793          	li	a5,87
/cva6/verif/sim/../tests/custom/common/syscalls.c:201 (discriminator 4)
    800040ce:	46bd                	li	a3,15
    800040d0:	fec42603          	lw	a2,-20(s0)
    800040d4:	9e91                	subw	a3,a3,a2
    800040d6:	2681                	sext.w	a3,a3
    800040d8:	9fb9                	addw	a5,a5,a4
    800040da:	0ff7f713          	andi	a4,a5,255
    800040de:	ff068793          	addi	a5,a3,-16
    800040e2:	97a2                	add	a5,a5,s0
    800040e4:	fee78423          	sb	a4,-24(a5)
/cva6/verif/sim/../tests/custom/common/syscalls.c:202
    x >>= 4;
    800040e8:	fc843783          	ld	a5,-56(s0)
    800040ec:	8391                	srli	a5,a5,0x4
    800040ee:	fcf43423          	sd	a5,-56(s0)
/cva6/verif/sim/../tests/custom/common/syscalls.c:199 (discriminator 2)
  for (i = 0; i < 16; i++)
    800040f2:	fec42783          	lw	a5,-20(s0)
    800040f6:	2785                	addiw	a5,a5,1
    800040f8:	fef42623          	sw	a5,-20(s0)
/cva6/verif/sim/../tests/custom/common/syscalls.c:199 (discriminator 1)
    800040fc:	fec42783          	lw	a5,-20(s0)
    80004100:	0007871b          	sext.w	a4,a5
    80004104:	47bd                	li	a5,15
    80004106:	fae7d1e3          	bge	a5,a4,800040a8 <printhex+0x12>
/cva6/verif/sim/../tests/custom/common/syscalls.c:204
  }
  str[16] = 0;
    8000410a:	fe040423          	sb	zero,-24(s0)
/cva6/verif/sim/../tests/custom/common/syscalls.c:206

  printstr(str);
    8000410e:	fd840793          	addi	a5,s0,-40
    80004112:	853e                	mv	a0,a5
    80004114:	cf3ff0ef          	jal	ra,80003e06 <printstr>
/cva6/verif/sim/../tests/custom/common/syscalls.c:207
}
    80004118:	0001                	nop
    8000411a:	70e2                	ld	ra,56(sp)
    8000411c:	7442                	ld	s0,48(sp)
    8000411e:	6121                	addi	sp,sp,64
    80004120:	8082                	ret

0000000080004122 <printnum>:
printnum():
/cva6/verif/sim/../tests/custom/common/syscalls.c:211

static inline void printnum(void (*putch)(int, void**), void **putdat,
                    unsigned long long num, unsigned base, int width, int padc)
{
    80004122:	714d                	addi	sp,sp,-336
    80004124:	e686                	sd	ra,328(sp)
    80004126:	e2a2                	sd	s0,320(sp)
    80004128:	0a80                	addi	s0,sp,336
    8000412a:	eca43c23          	sd	a0,-296(s0)
    8000412e:	ecb43823          	sd	a1,-304(s0)
    80004132:	ecc43423          	sd	a2,-312(s0)
    80004136:	8636                	mv	a2,a3
    80004138:	86ba                	mv	a3,a4
    8000413a:	873e                	mv	a4,a5
    8000413c:	87b2                	mv	a5,a2
    8000413e:	ecf42223          	sw	a5,-316(s0)
    80004142:	87b6                	mv	a5,a3
    80004144:	ecf42023          	sw	a5,-320(s0)
    80004148:	87ba                	mv	a5,a4
    8000414a:	eaf42e23          	sw	a5,-324(s0)
/cva6/verif/sim/../tests/custom/common/syscalls.c:213
  unsigned digs[sizeof(num)*CHAR_BIT];
  int pos = 0;
    8000414e:	fe042623          	sw	zero,-20(s0)
/cva6/verif/sim/../tests/custom/common/syscalls.c:217

  while (1)
  {
    digs[pos++] = num % base;
    80004152:	ec446783          	lwu	a5,-316(s0)
    80004156:	ec843703          	ld	a4,-312(s0)
    8000415a:	02f776b3          	remu	a3,a4,a5
    8000415e:	fec42783          	lw	a5,-20(s0)
    80004162:	0017871b          	addiw	a4,a5,1
    80004166:	fee42623          	sw	a4,-20(s0)
    8000416a:	0006871b          	sext.w	a4,a3
    8000416e:	078a                	slli	a5,a5,0x2
    80004170:	17c1                	addi	a5,a5,-16
    80004172:	97a2                	add	a5,a5,s0
    80004174:	eee7ac23          	sw	a4,-264(a5)
/cva6/verif/sim/../tests/custom/common/syscalls.c:218
    if (num < base)
    80004178:	ec446783          	lwu	a5,-316(s0)
    8000417c:	ec843703          	ld	a4,-312(s0)
    80004180:	00f76b63          	bltu	a4,a5,80004196 <printnum+0x74>
/cva6/verif/sim/../tests/custom/common/syscalls.c:220
      break;
    num /= base;
    80004184:	ec446783          	lwu	a5,-316(s0)
    80004188:	ec843703          	ld	a4,-312(s0)
    8000418c:	02f757b3          	divu	a5,a4,a5
    80004190:	ecf43423          	sd	a5,-312(s0)
/cva6/verif/sim/../tests/custom/common/syscalls.c:217
    digs[pos++] = num % base;
    80004194:	bf7d                	j	80004152 <printnum+0x30>
/cva6/verif/sim/../tests/custom/common/syscalls.c:219
      break;
    80004196:	0001                	nop
/cva6/verif/sim/../tests/custom/common/syscalls.c:223
  }

  while (width-- > pos)
    80004198:	a809                	j	800041aa <printnum+0x88>
/cva6/verif/sim/../tests/custom/common/syscalls.c:224
    putch(padc, putdat);
    8000419a:	ebc42703          	lw	a4,-324(s0)
    8000419e:	ed843783          	ld	a5,-296(s0)
    800041a2:	ed043583          	ld	a1,-304(s0)
    800041a6:	853a                	mv	a0,a4
    800041a8:	9782                	jalr	a5
/cva6/verif/sim/../tests/custom/common/syscalls.c:223
  while (width-- > pos)
    800041aa:	ec042783          	lw	a5,-320(s0)
    800041ae:	fff7871b          	addiw	a4,a5,-1
    800041b2:	ece42023          	sw	a4,-320(s0)
    800041b6:	fec42703          	lw	a4,-20(s0)
    800041ba:	2701                	sext.w	a4,a4
    800041bc:	fcf74fe3          	blt	a4,a5,8000419a <printnum+0x78>
/cva6/verif/sim/../tests/custom/common/syscalls.c:226

  while (pos-- > 0)
    800041c0:	a091                	j	80004204 <printnum+0xe2>
/cva6/verif/sim/../tests/custom/common/syscalls.c:227
    putch(digs[pos] + (digs[pos] >= 10 ? 'a' - 10 : '0'), putdat);
    800041c2:	fec42783          	lw	a5,-20(s0)
    800041c6:	078a                	slli	a5,a5,0x2
    800041c8:	17c1                	addi	a5,a5,-16
    800041ca:	97a2                	add	a5,a5,s0
    800041cc:	ef87a703          	lw	a4,-264(a5)
    800041d0:	fec42783          	lw	a5,-20(s0)
    800041d4:	078a                	slli	a5,a5,0x2
    800041d6:	17c1                	addi	a5,a5,-16
    800041d8:	97a2                	add	a5,a5,s0
    800041da:	ef87a783          	lw	a5,-264(a5)
    800041de:	86be                	mv	a3,a5
    800041e0:	47a5                	li	a5,9
    800041e2:	00d7f563          	bgeu	a5,a3,800041ec <printnum+0xca>
/cva6/verif/sim/../tests/custom/common/syscalls.c:227 (discriminator 1)
    800041e6:	05700793          	li	a5,87
    800041ea:	a019                	j	800041f0 <printnum+0xce>
/cva6/verif/sim/../tests/custom/common/syscalls.c:227 (discriminator 2)
    800041ec:	03000793          	li	a5,48
/cva6/verif/sim/../tests/custom/common/syscalls.c:227 (discriminator 4)
    800041f0:	9fb9                	addw	a5,a5,a4
    800041f2:	2781                	sext.w	a5,a5
    800041f4:	0007871b          	sext.w	a4,a5
    800041f8:	ed843783          	ld	a5,-296(s0)
    800041fc:	ed043583          	ld	a1,-304(s0)
    80004200:	853a                	mv	a0,a4
    80004202:	9782                	jalr	a5
/cva6/verif/sim/../tests/custom/common/syscalls.c:226
  while (pos-- > 0)
    80004204:	fec42783          	lw	a5,-20(s0)
    80004208:	fff7871b          	addiw	a4,a5,-1
    8000420c:	fee42623          	sw	a4,-20(s0)
    80004210:	faf049e3          	bgtz	a5,800041c2 <printnum+0xa0>
/cva6/verif/sim/../tests/custom/common/syscalls.c:228
}
    80004214:	0001                	nop
    80004216:	0001                	nop
    80004218:	60b6                	ld	ra,328(sp)
    8000421a:	6416                	ld	s0,320(sp)
    8000421c:	6171                	addi	sp,sp,336
    8000421e:	8082                	ret

0000000080004220 <getuint>:
getuint():
/cva6/verif/sim/../tests/custom/common/syscalls.c:231

static unsigned long long getuint(va_list *ap, int lflag)
{
    80004220:	1101                	addi	sp,sp,-32
    80004222:	ec22                	sd	s0,24(sp)
    80004224:	1000                	addi	s0,sp,32
    80004226:	fea43423          	sd	a0,-24(s0)
    8000422a:	87ae                	mv	a5,a1
    8000422c:	fef42223          	sw	a5,-28(s0)
/cva6/verif/sim/../tests/custom/common/syscalls.c:232
  if (lflag >= 2)
    80004230:	fe442783          	lw	a5,-28(s0)
    80004234:	0007871b          	sext.w	a4,a5
    80004238:	4785                	li	a5,1
    8000423a:	00e7dc63          	bge	a5,a4,80004252 <getuint+0x32>
/cva6/verif/sim/../tests/custom/common/syscalls.c:233
    return va_arg(*ap, unsigned long long);
    8000423e:	fe843783          	ld	a5,-24(s0)
    80004242:	639c                	ld	a5,0(a5)
    80004244:	00878693          	addi	a3,a5,8
    80004248:	fe843703          	ld	a4,-24(s0)
    8000424c:	e314                	sd	a3,0(a4)
    8000424e:	639c                	ld	a5,0(a5)
    80004250:	a815                	j	80004284 <getuint+0x64>
/cva6/verif/sim/../tests/custom/common/syscalls.c:234
  else if (lflag)
    80004252:	fe442783          	lw	a5,-28(s0)
    80004256:	2781                	sext.w	a5,a5
    80004258:	cb99                	beqz	a5,8000426e <getuint+0x4e>
/cva6/verif/sim/../tests/custom/common/syscalls.c:235
    return va_arg(*ap, unsigned long);
    8000425a:	fe843783          	ld	a5,-24(s0)
    8000425e:	639c                	ld	a5,0(a5)
    80004260:	00878693          	addi	a3,a5,8
    80004264:	fe843703          	ld	a4,-24(s0)
    80004268:	e314                	sd	a3,0(a4)
    8000426a:	639c                	ld	a5,0(a5)
    8000426c:	a821                	j	80004284 <getuint+0x64>
/cva6/verif/sim/../tests/custom/common/syscalls.c:237
  else
    return va_arg(*ap, unsigned int);
    8000426e:	fe843783          	ld	a5,-24(s0)
    80004272:	639c                	ld	a5,0(a5)
    80004274:	00878693          	addi	a3,a5,8
    80004278:	fe843703          	ld	a4,-24(s0)
    8000427c:	e314                	sd	a3,0(a4)
    8000427e:	439c                	lw	a5,0(a5)
/cva6/verif/sim/../tests/custom/common/syscalls.c:237 (discriminator 1)
    80004280:	080787bb          	0x80787bb
/cva6/verif/sim/../tests/custom/common/syscalls.c:238
}
    80004284:	853e                	mv	a0,a5
    80004286:	6462                	ld	s0,24(sp)
    80004288:	6105                	addi	sp,sp,32
    8000428a:	8082                	ret

000000008000428c <getint>:
getint():
/cva6/verif/sim/../tests/custom/common/syscalls.c:241

static long long getint(va_list *ap, int lflag)
{
    8000428c:	1101                	addi	sp,sp,-32
    8000428e:	ec22                	sd	s0,24(sp)
    80004290:	1000                	addi	s0,sp,32
    80004292:	fea43423          	sd	a0,-24(s0)
    80004296:	87ae                	mv	a5,a1
    80004298:	fef42223          	sw	a5,-28(s0)
/cva6/verif/sim/../tests/custom/common/syscalls.c:242
  if (lflag >= 2)
    8000429c:	fe442783          	lw	a5,-28(s0)
    800042a0:	0007871b          	sext.w	a4,a5
    800042a4:	4785                	li	a5,1
    800042a6:	00e7dc63          	bge	a5,a4,800042be <getint+0x32>
/cva6/verif/sim/../tests/custom/common/syscalls.c:243
    return va_arg(*ap, long long);
    800042aa:	fe843783          	ld	a5,-24(s0)
    800042ae:	639c                	ld	a5,0(a5)
    800042b0:	00878693          	addi	a3,a5,8
    800042b4:	fe843703          	ld	a4,-24(s0)
    800042b8:	e314                	sd	a3,0(a4)
    800042ba:	639c                	ld	a5,0(a5)
    800042bc:	a805                	j	800042ec <getint+0x60>
/cva6/verif/sim/../tests/custom/common/syscalls.c:244
  else if (lflag)
    800042be:	fe442783          	lw	a5,-28(s0)
    800042c2:	2781                	sext.w	a5,a5
    800042c4:	cb99                	beqz	a5,800042da <getint+0x4e>
/cva6/verif/sim/../tests/custom/common/syscalls.c:245
    return va_arg(*ap, long);
    800042c6:	fe843783          	ld	a5,-24(s0)
    800042ca:	639c                	ld	a5,0(a5)
    800042cc:	00878693          	addi	a3,a5,8
    800042d0:	fe843703          	ld	a4,-24(s0)
    800042d4:	e314                	sd	a3,0(a4)
    800042d6:	639c                	ld	a5,0(a5)
    800042d8:	a811                	j	800042ec <getint+0x60>
/cva6/verif/sim/../tests/custom/common/syscalls.c:247
  else
    return va_arg(*ap, int);
    800042da:	fe843783          	ld	a5,-24(s0)
    800042de:	639c                	ld	a5,0(a5)
    800042e0:	00878693          	addi	a3,a5,8
    800042e4:	fe843703          	ld	a4,-24(s0)
    800042e8:	e314                	sd	a3,0(a4)
    800042ea:	439c                	lw	a5,0(a5)
/cva6/verif/sim/../tests/custom/common/syscalls.c:248
}
    800042ec:	853e                	mv	a0,a5
    800042ee:	6462                	ld	s0,24(sp)
    800042f0:	6105                	addi	sp,sp,32
    800042f2:	8082                	ret

00000000800042f4 <vprintfmt>:
vprintfmt():
/cva6/verif/sim/../tests/custom/common/syscalls.c:251

static void vprintfmt(void (*putch)(int, void**), void **putdat, const char *fmt, va_list ap)
{
    800042f4:	7159                	addi	sp,sp,-112
    800042f6:	f486                	sd	ra,104(sp)
    800042f8:	f0a2                	sd	s0,96(sp)
    800042fa:	eca6                	sd	s1,88(sp)
    800042fc:	e8ca                	sd	s2,80(sp)
    800042fe:	1880                	addi	s0,sp,112
    80004300:	faa43423          	sd	a0,-88(s0)
    80004304:	fab43023          	sd	a1,-96(s0)
    80004308:	f8c43c23          	sd	a2,-104(s0)
    8000430c:	f8d43823          	sd	a3,-112(s0)
/cva6/verif/sim/../tests/custom/common/syscalls.c:260
  unsigned long long num;
  int base, lflag, width, precision, altflag;
  char padc;

  while (1) {
    while ((ch = *(unsigned char *) fmt) != '%') {
    80004310:	a831                	j	8000432c <vprintfmt+0x38>
/cva6/verif/sim/../tests/custom/common/syscalls.c:261
      if (ch == '\0')
    80004312:	32048a63          	beqz	s1,80004646 <vprintfmt+0x352>
/cva6/verif/sim/../tests/custom/common/syscalls.c:263
        return;
      fmt++;
    80004316:	f9843783          	ld	a5,-104(s0)
    8000431a:	0785                	addi	a5,a5,1
    8000431c:	f8f43c23          	sd	a5,-104(s0)
/cva6/verif/sim/../tests/custom/common/syscalls.c:264
      putch(ch, putdat);
    80004320:	fa843783          	ld	a5,-88(s0)
    80004324:	fa043583          	ld	a1,-96(s0)
    80004328:	8526                	mv	a0,s1
    8000432a:	9782                	jalr	a5
/cva6/verif/sim/../tests/custom/common/syscalls.c:260
    while ((ch = *(unsigned char *) fmt) != '%') {
    8000432c:	f9843783          	ld	a5,-104(s0)
    80004330:	0007c783          	lbu	a5,0(a5)
    80004334:	0007849b          	sext.w	s1,a5
    80004338:	8726                	mv	a4,s1
    8000433a:	02500793          	li	a5,37
    8000433e:	fcf71ae3          	bne	a4,a5,80004312 <vprintfmt+0x1e>
/cva6/verif/sim/../tests/custom/common/syscalls.c:266
    }
    fmt++;
    80004342:	f9843783          	ld	a5,-104(s0)
    80004346:	0785                	addi	a5,a5,1
    80004348:	f8f43c23          	sd	a5,-104(s0)
/cva6/verif/sim/../tests/custom/common/syscalls.c:269

    // Process a %-escape sequence
    last_fmt = fmt;
    8000434c:	f9843783          	ld	a5,-104(s0)
    80004350:	faf43c23          	sd	a5,-72(s0)
/cva6/verif/sim/../tests/custom/common/syscalls.c:270
    padc = ' ';
    80004354:	02000793          	li	a5,32
    80004358:	fcf403a3          	sb	a5,-57(s0)
/cva6/verif/sim/../tests/custom/common/syscalls.c:271
    width = -1;
    8000435c:	57fd                	li	a5,-1
    8000435e:	fcf42623          	sw	a5,-52(s0)
/cva6/verif/sim/../tests/custom/common/syscalls.c:272
    precision = -1;
    80004362:	57fd                	li	a5,-1
    80004364:	fcf42423          	sw	a5,-56(s0)
/cva6/verif/sim/../tests/custom/common/syscalls.c:273
    lflag = 0;
    80004368:	fc042823          	sw	zero,-48(s0)
/cva6/verif/sim/../tests/custom/common/syscalls.c:274
    altflag = 0;
    8000436c:	fa042a23          	sw	zero,-76(s0)
/cva6/verif/sim/../tests/custom/common/syscalls.c:276
  reswitch:
    switch (ch = *(unsigned char *) fmt++) {
    80004370:	f9843783          	ld	a5,-104(s0)
    80004374:	00178713          	addi	a4,a5,1
    80004378:	f8e43c23          	sd	a4,-104(s0)
    8000437c:	0007c783          	lbu	a5,0(a5)
    80004380:	0007849b          	sext.w	s1,a5
    80004384:	fdd4869b          	addiw	a3,s1,-35
    80004388:	0006871b          	sext.w	a4,a3
    8000438c:	05500793          	li	a5,85
    80004390:	28e7ee63          	bltu	a5,a4,8000462c <vprintfmt+0x338>
    80004394:	080687bb          	0x80687bb
    80004398:	00279713          	slli	a4,a5,0x2
    8000439c:	00001797          	auipc	a5,0x1
    800043a0:	cac78793          	addi	a5,a5,-852 # 80005048 <_end_text+0x48>
    800043a4:	97ba                	add	a5,a5,a4
    800043a6:	439c                	lw	a5,0(a5)
    800043a8:	0007871b          	sext.w	a4,a5
    800043ac:	00001797          	auipc	a5,0x1
    800043b0:	c9c78793          	addi	a5,a5,-868 # 80005048 <_end_text+0x48>
    800043b4:	97ba                	add	a5,a5,a4
    800043b6:	8782                	jr	a5
/cva6/verif/sim/../tests/custom/common/syscalls.c:280

    // flag to pad on the right
    case '-':
      padc = '-';
    800043b8:	02d00793          	li	a5,45
    800043bc:	fcf403a3          	sb	a5,-57(s0)
/cva6/verif/sim/../tests/custom/common/syscalls.c:281
      goto reswitch;
    800043c0:	bf45                	j	80004370 <vprintfmt+0x7c>
/cva6/verif/sim/../tests/custom/common/syscalls.c:285
      
    // flag to pad with 0's instead of spaces
    case '0':
      padc = '0';
    800043c2:	03000793          	li	a5,48
    800043c6:	fcf403a3          	sb	a5,-57(s0)
/cva6/verif/sim/../tests/custom/common/syscalls.c:286
      goto reswitch;
    800043ca:	b75d                	j	80004370 <vprintfmt+0x7c>
/cva6/verif/sim/../tests/custom/common/syscalls.c:298
    case '5':
    case '6':
    case '7':
    case '8':
    case '9':
      for (precision = 0; ; ++fmt) {
    800043cc:	fc042423          	sw	zero,-56(s0)
/cva6/verif/sim/../tests/custom/common/syscalls.c:299
        precision = precision * 10 + ch - '0';
    800043d0:	fc842783          	lw	a5,-56(s0)
    800043d4:	873e                	mv	a4,a5
    800043d6:	87ba                	mv	a5,a4
    800043d8:	0027979b          	slliw	a5,a5,0x2
    800043dc:	9fb9                	addw	a5,a5,a4
    800043de:	0017979b          	slliw	a5,a5,0x1
    800043e2:	2781                	sext.w	a5,a5
    800043e4:	9fa5                	addw	a5,a5,s1
    800043e6:	2781                	sext.w	a5,a5
    800043e8:	fd07879b          	addiw	a5,a5,-48
    800043ec:	fcf42423          	sw	a5,-56(s0)
/cva6/verif/sim/../tests/custom/common/syscalls.c:300
        ch = *fmt;
    800043f0:	f9843783          	ld	a5,-104(s0)
    800043f4:	0007c783          	lbu	a5,0(a5)
    800043f8:	0007849b          	sext.w	s1,a5
/cva6/verif/sim/../tests/custom/common/syscalls.c:301
        if (ch < '0' || ch > '9')
    800043fc:	8726                	mv	a4,s1
    800043fe:	02f00793          	li	a5,47
    80004402:	04e7d363          	bge	a5,a4,80004448 <vprintfmt+0x154>
/cva6/verif/sim/../tests/custom/common/syscalls.c:301 (discriminator 1)
    80004406:	8726                	mv	a4,s1
    80004408:	03900793          	li	a5,57
    8000440c:	02e7ce63          	blt	a5,a4,80004448 <vprintfmt+0x154>
/cva6/verif/sim/../tests/custom/common/syscalls.c:298
      for (precision = 0; ; ++fmt) {
    80004410:	f9843783          	ld	a5,-104(s0)
    80004414:	0785                	addi	a5,a5,1
    80004416:	f8f43c23          	sd	a5,-104(s0)
/cva6/verif/sim/../tests/custom/common/syscalls.c:299
        precision = precision * 10 + ch - '0';
    8000441a:	bf5d                	j	800043d0 <vprintfmt+0xdc>
/cva6/verif/sim/../tests/custom/common/syscalls.c:307
          break;
      }
      goto process_precision;

    case '*':
      precision = va_arg(ap, int);
    8000441c:	f9043783          	ld	a5,-112(s0)
    80004420:	00878713          	addi	a4,a5,8
    80004424:	f8e43823          	sd	a4,-112(s0)
    80004428:	439c                	lw	a5,0(a5)
    8000442a:	fcf42423          	sw	a5,-56(s0)
/cva6/verif/sim/../tests/custom/common/syscalls.c:308
      goto process_precision;
    8000442e:	a831                	j	8000444a <vprintfmt+0x156>
/cva6/verif/sim/../tests/custom/common/syscalls.c:311

    case '.':
      if (width < 0)
    80004430:	fcc42783          	lw	a5,-52(s0)
    80004434:	2781                	sext.w	a5,a5
    80004436:	f207dde3          	bgez	a5,80004370 <vprintfmt+0x7c>
/cva6/verif/sim/../tests/custom/common/syscalls.c:312
        width = 0;
    8000443a:	fc042623          	sw	zero,-52(s0)
/cva6/verif/sim/../tests/custom/common/syscalls.c:313
      goto reswitch;
    8000443e:	bf0d                	j	80004370 <vprintfmt+0x7c>
/cva6/verif/sim/../tests/custom/common/syscalls.c:316

    case '#':
      altflag = 1;
    80004440:	4785                	li	a5,1
    80004442:	faf42a23          	sw	a5,-76(s0)
/cva6/verif/sim/../tests/custom/common/syscalls.c:317
      goto reswitch;
    80004446:	b72d                	j	80004370 <vprintfmt+0x7c>
/cva6/verif/sim/../tests/custom/common/syscalls.c:304
      goto process_precision;
    80004448:	0001                	nop
/cva6/verif/sim/../tests/custom/common/syscalls.c:320

    process_precision:
      if (width < 0)
    8000444a:	fcc42783          	lw	a5,-52(s0)
    8000444e:	2781                	sext.w	a5,a5
    80004450:	f207d0e3          	bgez	a5,80004370 <vprintfmt+0x7c>
/cva6/verif/sim/../tests/custom/common/syscalls.c:321
        width = precision, precision = -1;
    80004454:	fc842783          	lw	a5,-56(s0)
    80004458:	fcf42623          	sw	a5,-52(s0)
    8000445c:	57fd                	li	a5,-1
    8000445e:	fcf42423          	sw	a5,-56(s0)
/cva6/verif/sim/../tests/custom/common/syscalls.c:322
      goto reswitch;
    80004462:	b739                	j	80004370 <vprintfmt+0x7c>
/cva6/verif/sim/../tests/custom/common/syscalls.c:326

    // long flag (doubled for long long)
    case 'l':
      lflag++;
    80004464:	fd042783          	lw	a5,-48(s0)
    80004468:	2785                	addiw	a5,a5,1
    8000446a:	fcf42823          	sw	a5,-48(s0)
/cva6/verif/sim/../tests/custom/common/syscalls.c:327
      goto reswitch;
    8000446e:	b709                	j	80004370 <vprintfmt+0x7c>
/cva6/verif/sim/../tests/custom/common/syscalls.c:331

    // character
    case 'c':
      putch(va_arg(ap, int), putdat);
    80004470:	f9043783          	ld	a5,-112(s0)
    80004474:	00878713          	addi	a4,a5,8
    80004478:	f8e43823          	sd	a4,-112(s0)
    8000447c:	4398                	lw	a4,0(a5)
/cva6/verif/sim/../tests/custom/common/syscalls.c:331 (discriminator 1)
    8000447e:	fa843783          	ld	a5,-88(s0)
    80004482:	fa043583          	ld	a1,-96(s0)
    80004486:	853a                	mv	a0,a4
    80004488:	9782                	jalr	a5
/cva6/verif/sim/../tests/custom/common/syscalls.c:332
      break;
    8000448a:	aa6d                	j	80004644 <vprintfmt+0x350>
/cva6/verif/sim/../tests/custom/common/syscalls.c:336

    // string
    case 's':
      if ((p = va_arg(ap, char *)) == NULL)
    8000448c:	f9043783          	ld	a5,-112(s0)
    80004490:	00878713          	addi	a4,a5,8
    80004494:	f8e43823          	sd	a4,-112(s0)
    80004498:	0007b903          	ld	s2,0(a5)
/cva6/verif/sim/../tests/custom/common/syscalls.c:336 (discriminator 1)
    8000449c:	00091663          	bnez	s2,800044a8 <vprintfmt+0x1b4>
/cva6/verif/sim/../tests/custom/common/syscalls.c:337
        p = "(null)";
    800044a0:	00001917          	auipc	s2,0x1
    800044a4:	ba090913          	addi	s2,s2,-1120 # 80005040 <_end_text+0x40>
/cva6/verif/sim/../tests/custom/common/syscalls.c:338
      if (width > 0 && padc != '-')
    800044a8:	fcc42783          	lw	a5,-52(s0)
    800044ac:	2781                	sext.w	a5,a5
    800044ae:	06f05b63          	blez	a5,80004524 <vprintfmt+0x230>
/cva6/verif/sim/../tests/custom/common/syscalls.c:338 (discriminator 1)
    800044b2:	fc744783          	lbu	a5,-57(s0)
    800044b6:	0ff7f713          	andi	a4,a5,255
    800044ba:	02d00793          	li	a5,45
    800044be:	06f70363          	beq	a4,a5,80004524 <vprintfmt+0x230>
/cva6/verif/sim/../tests/custom/common/syscalls.c:339
        for (width -= strnlen(p, precision); width > 0; width--)
    800044c2:	fcc42483          	lw	s1,-52(s0)
    800044c6:	fc842783          	lw	a5,-56(s0)
    800044ca:	85be                	mv	a1,a5
    800044cc:	854a                	mv	a0,s2
    800044ce:	458000ef          	jal	ra,80004926 <strnlen>
    800044d2:	87aa                	mv	a5,a0
/cva6/verif/sim/../tests/custom/common/syscalls.c:339 (discriminator 1)
    800044d4:	2781                	sext.w	a5,a5
    800044d6:	40f487bb          	subw	a5,s1,a5
    800044da:	2781                	sext.w	a5,a5
    800044dc:	fcf42623          	sw	a5,-52(s0)
/cva6/verif/sim/../tests/custom/common/syscalls.c:339
    800044e0:	a005                	j	80004500 <vprintfmt+0x20c>
/cva6/verif/sim/../tests/custom/common/syscalls.c:340
          putch(padc, putdat);
    800044e2:	fc744783          	lbu	a5,-57(s0)
    800044e6:	0007871b          	sext.w	a4,a5
    800044ea:	fa843783          	ld	a5,-88(s0)
    800044ee:	fa043583          	ld	a1,-96(s0)
    800044f2:	853a                	mv	a0,a4
    800044f4:	9782                	jalr	a5
/cva6/verif/sim/../tests/custom/common/syscalls.c:339 (discriminator 3)
        for (width -= strnlen(p, precision); width > 0; width--)
    800044f6:	fcc42783          	lw	a5,-52(s0)
    800044fa:	37fd                	addiw	a5,a5,-1
    800044fc:	fcf42623          	sw	a5,-52(s0)
/cva6/verif/sim/../tests/custom/common/syscalls.c:339 (discriminator 1)
    80004500:	fcc42783          	lw	a5,-52(s0)
    80004504:	2781                	sext.w	a5,a5
    80004506:	fcf04ee3          	bgtz	a5,800044e2 <vprintfmt+0x1ee>
/cva6/verif/sim/../tests/custom/common/syscalls.c:341
      for (; (ch = *p) != '\0' && (precision < 0 || --precision >= 0); width--) {
    8000450a:	a829                	j	80004524 <vprintfmt+0x230>
/cva6/verif/sim/../tests/custom/common/syscalls.c:342
        putch(ch, putdat);
    8000450c:	fa843783          	ld	a5,-88(s0)
    80004510:	fa043583          	ld	a1,-96(s0)
    80004514:	8526                	mv	a0,s1
    80004516:	9782                	jalr	a5
/cva6/verif/sim/../tests/custom/common/syscalls.c:343
        p++;
    80004518:	0905                	addi	s2,s2,1
/cva6/verif/sim/../tests/custom/common/syscalls.c:341 (discriminator 5)
      for (; (ch = *p) != '\0' && (precision < 0 || --precision >= 0); width--) {
    8000451a:	fcc42783          	lw	a5,-52(s0)
    8000451e:	37fd                	addiw	a5,a5,-1
    80004520:	fcf42623          	sw	a5,-52(s0)
/cva6/verif/sim/../tests/custom/common/syscalls.c:341 (discriminator 1)
    80004524:	00094783          	lbu	a5,0(s2)
    80004528:	0007849b          	sext.w	s1,a5
    8000452c:	cc8d                	beqz	s1,80004566 <vprintfmt+0x272>
/cva6/verif/sim/../tests/custom/common/syscalls.c:341 (discriminator 2)
    8000452e:	fc842783          	lw	a5,-56(s0)
    80004532:	2781                	sext.w	a5,a5
    80004534:	fc07cce3          	bltz	a5,8000450c <vprintfmt+0x218>
/cva6/verif/sim/../tests/custom/common/syscalls.c:341 (discriminator 4)
    80004538:	fc842783          	lw	a5,-56(s0)
    8000453c:	37fd                	addiw	a5,a5,-1
    8000453e:	fcf42423          	sw	a5,-56(s0)
    80004542:	fc842783          	lw	a5,-56(s0)
    80004546:	2781                	sext.w	a5,a5
    80004548:	fc07d2e3          	bgez	a5,8000450c <vprintfmt+0x218>
/cva6/verif/sim/../tests/custom/common/syscalls.c:345
      }
      for (; width > 0; width--)
    8000454c:	a829                	j	80004566 <vprintfmt+0x272>
/cva6/verif/sim/../tests/custom/common/syscalls.c:346
        putch(' ', putdat);
    8000454e:	fa843783          	ld	a5,-88(s0)
    80004552:	fa043583          	ld	a1,-96(s0)
    80004556:	02000513          	li	a0,32
    8000455a:	9782                	jalr	a5
/cva6/verif/sim/../tests/custom/common/syscalls.c:345 (discriminator 2)
      for (; width > 0; width--)
    8000455c:	fcc42783          	lw	a5,-52(s0)
    80004560:	37fd                	addiw	a5,a5,-1
    80004562:	fcf42623          	sw	a5,-52(s0)
/cva6/verif/sim/../tests/custom/common/syscalls.c:345 (discriminator 1)
    80004566:	fcc42783          	lw	a5,-52(s0)
    8000456a:	2781                	sext.w	a5,a5
    8000456c:	fef041e3          	bgtz	a5,8000454e <vprintfmt+0x25a>
/cva6/verif/sim/../tests/custom/common/syscalls.c:347
      break;
    80004570:	a8d1                	j	80004644 <vprintfmt+0x350>
/cva6/verif/sim/../tests/custom/common/syscalls.c:351

    // (signed) decimal
    case 'd':
      num = getint(&ap, lflag);
    80004572:	fd042703          	lw	a4,-48(s0)
    80004576:	f9040793          	addi	a5,s0,-112
    8000457a:	85ba                	mv	a1,a4
    8000457c:	853e                	mv	a0,a5
    8000457e:	d0fff0ef          	jal	ra,8000428c <getint>
    80004582:	87aa                	mv	a5,a0
/cva6/verif/sim/../tests/custom/common/syscalls.c:351 (discriminator 1)
    80004584:	fcf43c23          	sd	a5,-40(s0)
/cva6/verif/sim/../tests/custom/common/syscalls.c:352
      if ((long long) num < 0) {
    80004588:	fd843783          	ld	a5,-40(s0)
    8000458c:	0007df63          	bgez	a5,800045aa <vprintfmt+0x2b6>
/cva6/verif/sim/../tests/custom/common/syscalls.c:353
        putch('-', putdat);
    80004590:	fa843783          	ld	a5,-88(s0)
    80004594:	fa043583          	ld	a1,-96(s0)
    80004598:	02d00513          	li	a0,45
    8000459c:	9782                	jalr	a5
/cva6/verif/sim/../tests/custom/common/syscalls.c:354
        num = -(long long) num;
    8000459e:	fd843783          	ld	a5,-40(s0)
    800045a2:	40f007b3          	neg	a5,a5
    800045a6:	fcf43c23          	sd	a5,-40(s0)
/cva6/verif/sim/../tests/custom/common/syscalls.c:356
      }
      base = 10;
    800045aa:	47a9                	li	a5,10
    800045ac:	fcf42a23          	sw	a5,-44(s0)
/cva6/verif/sim/../tests/custom/common/syscalls.c:357
      goto signed_number;
    800045b0:	a0b9                	j	800045fe <vprintfmt+0x30a>
/cva6/verif/sim/../tests/custom/common/syscalls.c:361

    // unsigned decimal
    case 'u':
      base = 10;
    800045b2:	47a9                	li	a5,10
    800045b4:	fcf42a23          	sw	a5,-44(s0)
/cva6/verif/sim/../tests/custom/common/syscalls.c:362
      goto unsigned_number;
    800045b8:	a80d                	j	800045ea <vprintfmt+0x2f6>
/cva6/verif/sim/../tests/custom/common/syscalls.c:367

    // (unsigned) octal
    case 'o':
      // should do something with padding so it's always 3 octits
      base = 8;
    800045ba:	47a1                	li	a5,8
    800045bc:	fcf42a23          	sw	a5,-44(s0)
/cva6/verif/sim/../tests/custom/common/syscalls.c:368
      goto unsigned_number;
    800045c0:	a02d                	j	800045ea <vprintfmt+0x2f6>
/cva6/verif/sim/../tests/custom/common/syscalls.c:373

    // pointer
    case 'p':
      static_assert(sizeof(long) == sizeof(void*));
      lflag = 1;
    800045c2:	4785                	li	a5,1
    800045c4:	fcf42823          	sw	a5,-48(s0)
/cva6/verif/sim/../tests/custom/common/syscalls.c:374
      putch('0', putdat);
    800045c8:	fa843783          	ld	a5,-88(s0)
    800045cc:	fa043583          	ld	a1,-96(s0)
    800045d0:	03000513          	li	a0,48
    800045d4:	9782                	jalr	a5
/cva6/verif/sim/../tests/custom/common/syscalls.c:375
      putch('x', putdat);
    800045d6:	fa843783          	ld	a5,-88(s0)
    800045da:	fa043583          	ld	a1,-96(s0)
    800045de:	07800513          	li	a0,120
    800045e2:	9782                	jalr	a5
/cva6/verif/sim/../tests/custom/common/syscalls.c:380
      /* fall through to 'x' */

    // (unsigned) hexadecimal
    case 'x':
      base = 16;
    800045e4:	47c1                	li	a5,16
    800045e6:	fcf42a23          	sw	a5,-44(s0)
/cva6/verif/sim/../tests/custom/common/syscalls.c:382
    unsigned_number:
      num = getuint(&ap, lflag);
    800045ea:	fd042703          	lw	a4,-48(s0)
    800045ee:	f9040793          	addi	a5,s0,-112
    800045f2:	85ba                	mv	a1,a4
    800045f4:	853e                	mv	a0,a5
    800045f6:	c2bff0ef          	jal	ra,80004220 <getuint>
    800045fa:	fca43c23          	sd	a0,-40(s0)
/cva6/verif/sim/../tests/custom/common/syscalls.c:384
    signed_number:
      printnum(putch, putdat, num, base, width, padc);
    800045fe:	fd442683          	lw	a3,-44(s0)
    80004602:	fc744783          	lbu	a5,-57(s0)
    80004606:	2781                	sext.w	a5,a5
    80004608:	fcc42703          	lw	a4,-52(s0)
    8000460c:	fd843603          	ld	a2,-40(s0)
    80004610:	fa043583          	ld	a1,-96(s0)
    80004614:	fa843503          	ld	a0,-88(s0)
    80004618:	b0bff0ef          	jal	ra,80004122 <printnum>
/cva6/verif/sim/../tests/custom/common/syscalls.c:385
      break;
    8000461c:	a025                	j	80004644 <vprintfmt+0x350>
/cva6/verif/sim/../tests/custom/common/syscalls.c:389

    // escaped '%' character
    case '%':
      putch(ch, putdat);
    8000461e:	fa843783          	ld	a5,-88(s0)
    80004622:	fa043583          	ld	a1,-96(s0)
    80004626:	8526                	mv	a0,s1
    80004628:	9782                	jalr	a5
/cva6/verif/sim/../tests/custom/common/syscalls.c:390
      break;
    8000462a:	a829                	j	80004644 <vprintfmt+0x350>
/cva6/verif/sim/../tests/custom/common/syscalls.c:394
      
    // unrecognized escape sequence - just print it literally
    default:
      putch('%', putdat);
    8000462c:	fa843783          	ld	a5,-88(s0)
    80004630:	fa043583          	ld	a1,-96(s0)
    80004634:	02500513          	li	a0,37
    80004638:	9782                	jalr	a5
/cva6/verif/sim/../tests/custom/common/syscalls.c:395
      fmt = last_fmt;
    8000463a:	fb843783          	ld	a5,-72(s0)
    8000463e:	f8f43c23          	sd	a5,-104(s0)
/cva6/verif/sim/../tests/custom/common/syscalls.c:396
      break;
    80004642:	0001                	nop
/cva6/verif/sim/../tests/custom/common/syscalls.c:260
    while ((ch = *(unsigned char *) fmt) != '%') {
    80004644:	b1e5                	j	8000432c <vprintfmt+0x38>
/cva6/verif/sim/../tests/custom/common/syscalls.c:262
        return;
    80004646:	0001                	nop
/cva6/verif/sim/../tests/custom/common/syscalls.c:399
    }
  }
}
    80004648:	70a6                	ld	ra,104(sp)
    8000464a:	7406                	ld	s0,96(sp)
    8000464c:	64e6                	ld	s1,88(sp)
    8000464e:	6946                	ld	s2,80(sp)
    80004650:	6165                	addi	sp,sp,112
    80004652:	8082                	ret

0000000080004654 <printf>:
printf():
/cva6/verif/sim/../tests/custom/common/syscalls.c:402

int printf(const char* fmt, ...)
{
    80004654:	7159                	addi	sp,sp,-112
    80004656:	f406                	sd	ra,40(sp)
    80004658:	f022                	sd	s0,32(sp)
    8000465a:	1800                	addi	s0,sp,48
    8000465c:	fca43c23          	sd	a0,-40(s0)
    80004660:	e40c                	sd	a1,8(s0)
    80004662:	e810                	sd	a2,16(s0)
    80004664:	ec14                	sd	a3,24(s0)
    80004666:	f018                	sd	a4,32(s0)
    80004668:	f41c                	sd	a5,40(s0)
    8000466a:	03043823          	sd	a6,48(s0)
    8000466e:	03143c23          	sd	a7,56(s0)
/cva6/verif/sim/../tests/custom/common/syscalls.c:404
  va_list ap;
  va_start(ap, fmt);
    80004672:	04040793          	addi	a5,s0,64
    80004676:	fcf43823          	sd	a5,-48(s0)
    8000467a:	fd043783          	ld	a5,-48(s0)
    8000467e:	fc878793          	addi	a5,a5,-56
    80004682:	fef43423          	sd	a5,-24(s0)
/cva6/verif/sim/../tests/custom/common/syscalls.c:406

  vprintfmt((void*)putchar, 0, fmt, ap);
    80004686:	fe843783          	ld	a5,-24(s0)
    8000468a:	86be                	mv	a3,a5
    8000468c:	fd843603          	ld	a2,-40(s0)
    80004690:	4581                	li	a1,0
    80004692:	00000517          	auipc	a0,0x0
    80004696:	99250513          	addi	a0,a0,-1646 # 80004024 <putchar>
    8000469a:	c5bff0ef          	jal	ra,800042f4 <vprintfmt>
/cva6/verif/sim/../tests/custom/common/syscalls.c:409

  va_end(ap);
  return 0; // incorrect return value, but who cares, anyway?
    8000469e:	4781                	li	a5,0
/cva6/verif/sim/../tests/custom/common/syscalls.c:410
}
    800046a0:	853e                	mv	a0,a5
    800046a2:	70a2                	ld	ra,40(sp)
    800046a4:	7402                	ld	s0,32(sp)
    800046a6:	6165                	addi	sp,sp,112
    800046a8:	8082                	ret

00000000800046aa <sprintf_putch>:
sprintf_putch():
/cva6/verif/sim/../tests/custom/common/syscalls.c:413

void sprintf_putch(int ch, void** data)
{
    800046aa:	7179                	addi	sp,sp,-48
    800046ac:	f422                	sd	s0,40(sp)
    800046ae:	1800                	addi	s0,sp,48
    800046b0:	87aa                	mv	a5,a0
    800046b2:	fcb43823          	sd	a1,-48(s0)
    800046b6:	fcf42e23          	sw	a5,-36(s0)
/cva6/verif/sim/../tests/custom/common/syscalls.c:414
  char** pstr = (char**)data;
    800046ba:	fd043783          	ld	a5,-48(s0)
    800046be:	fef43423          	sd	a5,-24(s0)
/cva6/verif/sim/../tests/custom/common/syscalls.c:415
  **pstr = ch;
    800046c2:	fe843783          	ld	a5,-24(s0)
    800046c6:	639c                	ld	a5,0(a5)
    800046c8:	fdc42703          	lw	a4,-36(s0)
    800046cc:	0ff77713          	andi	a4,a4,255
    800046d0:	00e78023          	sb	a4,0(a5)
/cva6/verif/sim/../tests/custom/common/syscalls.c:416
  (*pstr)++;
    800046d4:	fe843783          	ld	a5,-24(s0)
    800046d8:	639c                	ld	a5,0(a5)
    800046da:	00178713          	addi	a4,a5,1
    800046de:	fe843783          	ld	a5,-24(s0)
    800046e2:	e398                	sd	a4,0(a5)
/cva6/verif/sim/../tests/custom/common/syscalls.c:417
}
    800046e4:	0001                	nop
    800046e6:	7422                	ld	s0,40(sp)
    800046e8:	6145                	addi	sp,sp,48
    800046ea:	8082                	ret

00000000800046ec <sprintf>:
sprintf():
/cva6/verif/sim/../tests/custom/common/syscalls.c:420

int sprintf(char* str, const char* fmt, ...)
{
    800046ec:	7159                	addi	sp,sp,-112
    800046ee:	fc06                	sd	ra,56(sp)
    800046f0:	f822                	sd	s0,48(sp)
    800046f2:	0080                	addi	s0,sp,64
    800046f4:	fca43c23          	sd	a0,-40(s0)
    800046f8:	fcb43823          	sd	a1,-48(s0)
    800046fc:	e010                	sd	a2,0(s0)
    800046fe:	e414                	sd	a3,8(s0)
    80004700:	e818                	sd	a4,16(s0)
    80004702:	ec1c                	sd	a5,24(s0)
    80004704:	03043023          	sd	a6,32(s0)
    80004708:	03143423          	sd	a7,40(s0)
/cva6/verif/sim/../tests/custom/common/syscalls.c:422
  va_list ap;
  char* str0 = str;
    8000470c:	fd843783          	ld	a5,-40(s0)
    80004710:	fef43423          	sd	a5,-24(s0)
/cva6/verif/sim/../tests/custom/common/syscalls.c:423
  va_start(ap, fmt);
    80004714:	03040793          	addi	a5,s0,48
    80004718:	fcf43423          	sd	a5,-56(s0)
    8000471c:	fc843783          	ld	a5,-56(s0)
    80004720:	fd078793          	addi	a5,a5,-48
    80004724:	fef43023          	sd	a5,-32(s0)
/cva6/verif/sim/../tests/custom/common/syscalls.c:425

  vprintfmt(sprintf_putch, (void**)&str, fmt, ap);
    80004728:	fe043703          	ld	a4,-32(s0)
    8000472c:	fd840793          	addi	a5,s0,-40
    80004730:	86ba                	mv	a3,a4
    80004732:	fd043603          	ld	a2,-48(s0)
    80004736:	85be                	mv	a1,a5
    80004738:	00000517          	auipc	a0,0x0
    8000473c:	f7250513          	addi	a0,a0,-142 # 800046aa <sprintf_putch>
    80004740:	bb5ff0ef          	jal	ra,800042f4 <vprintfmt>
/cva6/verif/sim/../tests/custom/common/syscalls.c:426
  *str = 0;
    80004744:	fd843783          	ld	a5,-40(s0)
    80004748:	00078023          	sb	zero,0(a5)
/cva6/verif/sim/../tests/custom/common/syscalls.c:429

  va_end(ap);
  return str - str0;
    8000474c:	fd843703          	ld	a4,-40(s0)
    80004750:	fe843783          	ld	a5,-24(s0)
    80004754:	40f707b3          	sub	a5,a4,a5
    80004758:	2781                	sext.w	a5,a5
/cva6/verif/sim/../tests/custom/common/syscalls.c:430
}
    8000475a:	853e                	mv	a0,a5
    8000475c:	70e2                	ld	ra,56(sp)
    8000475e:	7442                	ld	s0,48(sp)
    80004760:	6165                	addi	sp,sp,112
    80004762:	8082                	ret

0000000080004764 <memcpy>:
memcpy():
/cva6/verif/sim/../tests/custom/common/syscalls.c:433

void* memcpy(void* dest, const void* src, size_t len)
{
    80004764:	715d                	addi	sp,sp,-80
    80004766:	e4a2                	sd	s0,72(sp)
    80004768:	0880                	addi	s0,sp,80
    8000476a:	fca43423          	sd	a0,-56(s0)
    8000476e:	fcb43023          	sd	a1,-64(s0)
    80004772:	fac43c23          	sd	a2,-72(s0)
/cva6/verif/sim/../tests/custom/common/syscalls.c:434
  if ((((uintptr_t)dest | (uintptr_t)src | len) & (sizeof(uintptr_t)-1)) == 0) {
    80004776:	fc843703          	ld	a4,-56(s0)
    8000477a:	fc043783          	ld	a5,-64(s0)
    8000477e:	8f5d                	or	a4,a4,a5
    80004780:	fb843783          	ld	a5,-72(s0)
    80004784:	8fd9                	or	a5,a5,a4
    80004786:	8b9d                	andi	a5,a5,7
    80004788:	e3b1                	bnez	a5,800047cc <memcpy+0x68>
/cva6/verif/sim/../tests/custom/common/syscalls.c:435
    const uintptr_t* s = src;
    8000478a:	fc043783          	ld	a5,-64(s0)
    8000478e:	fef43423          	sd	a5,-24(s0)
/cva6/verif/sim/../tests/custom/common/syscalls.c:436
    uintptr_t *d = dest;
    80004792:	fc843783          	ld	a5,-56(s0)
    80004796:	fef43023          	sd	a5,-32(s0)
/cva6/verif/sim/../tests/custom/common/syscalls.c:437
    while (d < (uintptr_t*)(dest + len))
    8000479a:	a839                	j	800047b8 <memcpy+0x54>
/cva6/verif/sim/../tests/custom/common/syscalls.c:438
      *d++ = *s++;
    8000479c:	fe843703          	ld	a4,-24(s0)
    800047a0:	00870793          	addi	a5,a4,8
    800047a4:	fef43423          	sd	a5,-24(s0)
    800047a8:	fe043783          	ld	a5,-32(s0)
    800047ac:	00878693          	addi	a3,a5,8
    800047b0:	fed43023          	sd	a3,-32(s0)
    800047b4:	6318                	ld	a4,0(a4)
    800047b6:	e398                	sd	a4,0(a5)
/cva6/verif/sim/../tests/custom/common/syscalls.c:437
    while (d < (uintptr_t*)(dest + len))
    800047b8:	fc843703          	ld	a4,-56(s0)
    800047bc:	fb843783          	ld	a5,-72(s0)
    800047c0:	97ba                	add	a5,a5,a4
    800047c2:	fe043703          	ld	a4,-32(s0)
    800047c6:	fcf76be3          	bltu	a4,a5,8000479c <memcpy+0x38>
    800047ca:	a099                	j	80004810 <memcpy+0xac>
/cva6/verif/sim/../tests/custom/common/syscalls.c:440
  } else {
    const char* s = src;
    800047cc:	fc043783          	ld	a5,-64(s0)
    800047d0:	fcf43c23          	sd	a5,-40(s0)
/cva6/verif/sim/../tests/custom/common/syscalls.c:441
    char *d = dest;
    800047d4:	fc843783          	ld	a5,-56(s0)
    800047d8:	fcf43823          	sd	a5,-48(s0)
/cva6/verif/sim/../tests/custom/common/syscalls.c:442
    while (d < (char*)(dest + len))
    800047dc:	a00d                	j	800047fe <memcpy+0x9a>
/cva6/verif/sim/../tests/custom/common/syscalls.c:443
      *d++ = *s++;
    800047de:	fd843703          	ld	a4,-40(s0)
    800047e2:	00170793          	addi	a5,a4,1
    800047e6:	fcf43c23          	sd	a5,-40(s0)
    800047ea:	fd043783          	ld	a5,-48(s0)
    800047ee:	00178693          	addi	a3,a5,1
    800047f2:	fcd43823          	sd	a3,-48(s0)
    800047f6:	00074703          	lbu	a4,0(a4)
    800047fa:	00e78023          	sb	a4,0(a5)
/cva6/verif/sim/../tests/custom/common/syscalls.c:442
    while (d < (char*)(dest + len))
    800047fe:	fc843703          	ld	a4,-56(s0)
    80004802:	fb843783          	ld	a5,-72(s0)
    80004806:	97ba                	add	a5,a5,a4
    80004808:	fd043703          	ld	a4,-48(s0)
    8000480c:	fcf769e3          	bltu	a4,a5,800047de <memcpy+0x7a>
/cva6/verif/sim/../tests/custom/common/syscalls.c:445
  }
  return dest;
    80004810:	fc843783          	ld	a5,-56(s0)
/cva6/verif/sim/../tests/custom/common/syscalls.c:446
}
    80004814:	853e                	mv	a0,a5
    80004816:	6426                	ld	s0,72(sp)
    80004818:	6161                	addi	sp,sp,80
    8000481a:	8082                	ret

000000008000481c <memset>:
memset():
/cva6/verif/sim/../tests/custom/common/syscalls.c:449

void* memset(void* dest, int byte, size_t len)
{
    8000481c:	715d                	addi	sp,sp,-80
    8000481e:	e4a2                	sd	s0,72(sp)
    80004820:	0880                	addi	s0,sp,80
    80004822:	fca43423          	sd	a0,-56(s0)
    80004826:	87ae                	mv	a5,a1
    80004828:	fac43c23          	sd	a2,-72(s0)
    8000482c:	fcf42223          	sw	a5,-60(s0)
/cva6/verif/sim/../tests/custom/common/syscalls.c:450
  if ((((uintptr_t)dest | len) & (sizeof(uintptr_t)-1)) == 0) {
    80004830:	fc843703          	ld	a4,-56(s0)
    80004834:	fb843783          	ld	a5,-72(s0)
    80004838:	8fd9                	or	a5,a5,a4
    8000483a:	8b9d                	andi	a5,a5,7
    8000483c:	e7bd                	bnez	a5,800048aa <memset+0x8e>
/cva6/verif/sim/../tests/custom/common/syscalls.c:451
    uintptr_t word = byte & 0xFF;
    8000483e:	fc442783          	lw	a5,-60(s0)
    80004842:	0ff7f793          	andi	a5,a5,255
    80004846:	fcf43c23          	sd	a5,-40(s0)
/cva6/verif/sim/../tests/custom/common/syscalls.c:452
    word |= word << 8;
    8000484a:	fd843783          	ld	a5,-40(s0)
    8000484e:	07a2                	slli	a5,a5,0x8
    80004850:	fd843703          	ld	a4,-40(s0)
    80004854:	8fd9                	or	a5,a5,a4
    80004856:	fcf43c23          	sd	a5,-40(s0)
/cva6/verif/sim/../tests/custom/common/syscalls.c:453
    word |= word << 16;
    8000485a:	fd843783          	ld	a5,-40(s0)
    8000485e:	07c2                	slli	a5,a5,0x10
    80004860:	fd843703          	ld	a4,-40(s0)
    80004864:	8fd9                	or	a5,a5,a4
    80004866:	fcf43c23          	sd	a5,-40(s0)
/cva6/verif/sim/../tests/custom/common/syscalls.c:454
    word |= word << 16 << 16;
    8000486a:	fd843783          	ld	a5,-40(s0)
    8000486e:	1782                	slli	a5,a5,0x20
    80004870:	fd843703          	ld	a4,-40(s0)
    80004874:	8fd9                	or	a5,a5,a4
    80004876:	fcf43c23          	sd	a5,-40(s0)
/cva6/verif/sim/../tests/custom/common/syscalls.c:456

    uintptr_t *d = dest;
    8000487a:	fc843783          	ld	a5,-56(s0)
    8000487e:	fef43423          	sd	a5,-24(s0)
/cva6/verif/sim/../tests/custom/common/syscalls.c:457
    while (d < (uintptr_t*)(dest + len))
    80004882:	a811                	j	80004896 <memset+0x7a>
/cva6/verif/sim/../tests/custom/common/syscalls.c:458
      *d++ = word;
    80004884:	fe843783          	ld	a5,-24(s0)
    80004888:	00878713          	addi	a4,a5,8
    8000488c:	fee43423          	sd	a4,-24(s0)
    80004890:	fd843703          	ld	a4,-40(s0)
    80004894:	e398                	sd	a4,0(a5)
/cva6/verif/sim/../tests/custom/common/syscalls.c:457
    while (d < (uintptr_t*)(dest + len))
    80004896:	fc843703          	ld	a4,-56(s0)
    8000489a:	fb843783          	ld	a5,-72(s0)
    8000489e:	97ba                	add	a5,a5,a4
    800048a0:	fe843703          	ld	a4,-24(s0)
    800048a4:	fef760e3          	bltu	a4,a5,80004884 <memset+0x68>
    800048a8:	a81d                	j	800048de <memset+0xc2>
/cva6/verif/sim/../tests/custom/common/syscalls.c:460
  } else {
    char *d = dest;
    800048aa:	fc843783          	ld	a5,-56(s0)
    800048ae:	fef43023          	sd	a5,-32(s0)
/cva6/verif/sim/../tests/custom/common/syscalls.c:461
    while (d < (char*)(dest + len))
    800048b2:	a829                	j	800048cc <memset+0xb0>
/cva6/verif/sim/../tests/custom/common/syscalls.c:462
      *d++ = byte;
    800048b4:	fe043783          	ld	a5,-32(s0)
    800048b8:	00178713          	addi	a4,a5,1
    800048bc:	fee43023          	sd	a4,-32(s0)
    800048c0:	fc442703          	lw	a4,-60(s0)
    800048c4:	0ff77713          	andi	a4,a4,255
    800048c8:	00e78023          	sb	a4,0(a5)
/cva6/verif/sim/../tests/custom/common/syscalls.c:461
    while (d < (char*)(dest + len))
    800048cc:	fc843703          	ld	a4,-56(s0)
    800048d0:	fb843783          	ld	a5,-72(s0)
    800048d4:	97ba                	add	a5,a5,a4
    800048d6:	fe043703          	ld	a4,-32(s0)
    800048da:	fcf76de3          	bltu	a4,a5,800048b4 <memset+0x98>
/cva6/verif/sim/../tests/custom/common/syscalls.c:464
  }
  return dest;
    800048de:	fc843783          	ld	a5,-56(s0)
/cva6/verif/sim/../tests/custom/common/syscalls.c:465
}
    800048e2:	853e                	mv	a0,a5
    800048e4:	6426                	ld	s0,72(sp)
    800048e6:	6161                	addi	sp,sp,80
    800048e8:	8082                	ret

00000000800048ea <strlen>:
strlen():
/cva6/verif/sim/../tests/custom/common/syscalls.c:468

size_t strlen(const char *s)
{
    800048ea:	7179                	addi	sp,sp,-48
    800048ec:	f422                	sd	s0,40(sp)
    800048ee:	1800                	addi	s0,sp,48
    800048f0:	fca43c23          	sd	a0,-40(s0)
/cva6/verif/sim/../tests/custom/common/syscalls.c:469
  const char *p = s;
    800048f4:	fd843783          	ld	a5,-40(s0)
    800048f8:	fef43423          	sd	a5,-24(s0)
/cva6/verif/sim/../tests/custom/common/syscalls.c:470
  while (*p)
    800048fc:	a031                	j	80004908 <strlen+0x1e>
/cva6/verif/sim/../tests/custom/common/syscalls.c:471
    p++;
    800048fe:	fe843783          	ld	a5,-24(s0)
    80004902:	0785                	addi	a5,a5,1
    80004904:	fef43423          	sd	a5,-24(s0)
/cva6/verif/sim/../tests/custom/common/syscalls.c:470
  while (*p)
    80004908:	fe843783          	ld	a5,-24(s0)
    8000490c:	0007c783          	lbu	a5,0(a5)
    80004910:	f7fd                	bnez	a5,800048fe <strlen+0x14>
/cva6/verif/sim/../tests/custom/common/syscalls.c:472
  return p - s;
    80004912:	fe843703          	ld	a4,-24(s0)
    80004916:	fd843783          	ld	a5,-40(s0)
    8000491a:	40f707b3          	sub	a5,a4,a5
/cva6/verif/sim/../tests/custom/common/syscalls.c:473
}
    8000491e:	853e                	mv	a0,a5
    80004920:	7422                	ld	s0,40(sp)
    80004922:	6145                	addi	sp,sp,48
    80004924:	8082                	ret

0000000080004926 <strnlen>:
strnlen():
/cva6/verif/sim/../tests/custom/common/syscalls.c:476

size_t strnlen(const char *s, size_t n)
{
    80004926:	7179                	addi	sp,sp,-48
    80004928:	f422                	sd	s0,40(sp)
    8000492a:	1800                	addi	s0,sp,48
    8000492c:	fca43c23          	sd	a0,-40(s0)
    80004930:	fcb43823          	sd	a1,-48(s0)
/cva6/verif/sim/../tests/custom/common/syscalls.c:477
  const char *p = s;
    80004934:	fd843783          	ld	a5,-40(s0)
    80004938:	fef43423          	sd	a5,-24(s0)
/cva6/verif/sim/../tests/custom/common/syscalls.c:478
  while (n-- && *p)
    8000493c:	a031                	j	80004948 <strnlen+0x22>
/cva6/verif/sim/../tests/custom/common/syscalls.c:479
    p++;
    8000493e:	fe843783          	ld	a5,-24(s0)
    80004942:	0785                	addi	a5,a5,1
    80004944:	fef43423          	sd	a5,-24(s0)
/cva6/verif/sim/../tests/custom/common/syscalls.c:478
  while (n-- && *p)
    80004948:	fd043783          	ld	a5,-48(s0)
    8000494c:	fff78713          	addi	a4,a5,-1
    80004950:	fce43823          	sd	a4,-48(s0)
    80004954:	c791                	beqz	a5,80004960 <strnlen+0x3a>
/cva6/verif/sim/../tests/custom/common/syscalls.c:478 (discriminator 1)
    80004956:	fe843783          	ld	a5,-24(s0)
    8000495a:	0007c783          	lbu	a5,0(a5)
    8000495e:	f3e5                	bnez	a5,8000493e <strnlen+0x18>
/cva6/verif/sim/../tests/custom/common/syscalls.c:480
  return p - s;
    80004960:	fe843703          	ld	a4,-24(s0)
    80004964:	fd843783          	ld	a5,-40(s0)
    80004968:	40f707b3          	sub	a5,a4,a5
/cva6/verif/sim/../tests/custom/common/syscalls.c:481
}
    8000496c:	853e                	mv	a0,a5
    8000496e:	7422                	ld	s0,40(sp)
    80004970:	6145                	addi	sp,sp,48
    80004972:	8082                	ret

0000000080004974 <strcmp>:
strcmp():
/cva6/verif/sim/../tests/custom/common/syscalls.c:484

int strcmp(const char* s1, const char* s2)
{
    80004974:	7179                	addi	sp,sp,-48
    80004976:	f422                	sd	s0,40(sp)
    80004978:	1800                	addi	s0,sp,48
    8000497a:	fca43c23          	sd	a0,-40(s0)
    8000497e:	fcb43823          	sd	a1,-48(s0)
/cva6/verif/sim/../tests/custom/common/syscalls.c:488
  unsigned char c1, c2;

  do {
    c1 = *s1++;
    80004982:	fd843783          	ld	a5,-40(s0)
    80004986:	00178713          	addi	a4,a5,1
    8000498a:	fce43c23          	sd	a4,-40(s0)
    8000498e:	0007c783          	lbu	a5,0(a5)
    80004992:	fef407a3          	sb	a5,-17(s0)
/cva6/verif/sim/../tests/custom/common/syscalls.c:489
    c2 = *s2++;
    80004996:	fd043783          	ld	a5,-48(s0)
    8000499a:	00178713          	addi	a4,a5,1
    8000499e:	fce43823          	sd	a4,-48(s0)
    800049a2:	0007c783          	lbu	a5,0(a5)
    800049a6:	fef40723          	sb	a5,-18(s0)
/cva6/verif/sim/../tests/custom/common/syscalls.c:490 (discriminator 2)
  } while (c1 != 0 && c1 == c2);
    800049aa:	fef44783          	lbu	a5,-17(s0)
    800049ae:	0ff7f793          	andi	a5,a5,255
    800049b2:	cf81                	beqz	a5,800049ca <strcmp+0x56>
/cva6/verif/sim/../tests/custom/common/syscalls.c:490 (discriminator 1)
    800049b4:	fef44783          	lbu	a5,-17(s0)
    800049b8:	873e                	mv	a4,a5
    800049ba:	fee44783          	lbu	a5,-18(s0)
    800049be:	0ff77713          	andi	a4,a4,255
    800049c2:	0ff7f793          	andi	a5,a5,255
    800049c6:	faf70ee3          	beq	a4,a5,80004982 <strcmp+0xe>
/cva6/verif/sim/../tests/custom/common/syscalls.c:492

  return c1 - c2;
    800049ca:	fef44783          	lbu	a5,-17(s0)
    800049ce:	0007871b          	sext.w	a4,a5
    800049d2:	fee44783          	lbu	a5,-18(s0)
    800049d6:	2781                	sext.w	a5,a5
    800049d8:	40f707bb          	subw	a5,a4,a5
    800049dc:	2781                	sext.w	a5,a5
/cva6/verif/sim/../tests/custom/common/syscalls.c:493
}
    800049de:	853e                	mv	a0,a5
    800049e0:	7422                	ld	s0,40(sp)
    800049e2:	6145                	addi	sp,sp,48
    800049e4:	8082                	ret

00000000800049e6 <strcpy>:
strcpy():
/cva6/verif/sim/../tests/custom/common/syscalls.c:496

char* strcpy(char* dest, const char* src)
{
    800049e6:	7179                	addi	sp,sp,-48
    800049e8:	f422                	sd	s0,40(sp)
    800049ea:	1800                	addi	s0,sp,48
    800049ec:	fca43c23          	sd	a0,-40(s0)
    800049f0:	fcb43823          	sd	a1,-48(s0)
/cva6/verif/sim/../tests/custom/common/syscalls.c:497
  char* d = dest;
    800049f4:	fd843783          	ld	a5,-40(s0)
    800049f8:	fef43423          	sd	a5,-24(s0)
/cva6/verif/sim/../tests/custom/common/syscalls.c:498
  while ((*d++ = *src++))
    800049fc:	0001                	nop
/cva6/verif/sim/../tests/custom/common/syscalls.c:498 (discriminator 1)
    800049fe:	fd043703          	ld	a4,-48(s0)
    80004a02:	00170793          	addi	a5,a4,1
    80004a06:	fcf43823          	sd	a5,-48(s0)
    80004a0a:	fe843783          	ld	a5,-24(s0)
    80004a0e:	00178693          	addi	a3,a5,1
    80004a12:	fed43423          	sd	a3,-24(s0)
    80004a16:	00074703          	lbu	a4,0(a4)
    80004a1a:	00e78023          	sb	a4,0(a5)
    80004a1e:	0007c783          	lbu	a5,0(a5)
    80004a22:	fff1                	bnez	a5,800049fe <strcpy+0x18>
/cva6/verif/sim/../tests/custom/common/syscalls.c:500
    ;
  return dest;
    80004a24:	fd843783          	ld	a5,-40(s0)
/cva6/verif/sim/../tests/custom/common/syscalls.c:501
}
    80004a28:	853e                	mv	a0,a5
    80004a2a:	7422                	ld	s0,40(sp)
    80004a2c:	6145                	addi	sp,sp,48
    80004a2e:	8082                	ret

0000000080004a30 <atol>:
atol():
/cva6/verif/sim/../tests/custom/common/syscalls.c:504

long atol(const char* str)
{
    80004a30:	7179                	addi	sp,sp,-48
    80004a32:	f422                	sd	s0,40(sp)
    80004a34:	1800                	addi	s0,sp,48
    80004a36:	fca43c23          	sd	a0,-40(s0)
/cva6/verif/sim/../tests/custom/common/syscalls.c:505
  long res = 0;
    80004a3a:	fe043423          	sd	zero,-24(s0)
/cva6/verif/sim/../tests/custom/common/syscalls.c:506
  int sign = 0;
    80004a3e:	fe042223          	sw	zero,-28(s0)
/cva6/verif/sim/../tests/custom/common/syscalls.c:508

  while (*str == ' ')
    80004a42:	a031                	j	80004a4e <atol+0x1e>
/cva6/verif/sim/../tests/custom/common/syscalls.c:509
    str++;
    80004a44:	fd843783          	ld	a5,-40(s0)
    80004a48:	0785                	addi	a5,a5,1
    80004a4a:	fcf43c23          	sd	a5,-40(s0)
/cva6/verif/sim/../tests/custom/common/syscalls.c:508
  while (*str == ' ')
    80004a4e:	fd843783          	ld	a5,-40(s0)
    80004a52:	0007c783          	lbu	a5,0(a5)
    80004a56:	873e                	mv	a4,a5
    80004a58:	02000793          	li	a5,32
    80004a5c:	fef704e3          	beq	a4,a5,80004a44 <atol+0x14>
/cva6/verif/sim/../tests/custom/common/syscalls.c:511

  if (*str == '-' || *str == '+') {
    80004a60:	fd843783          	ld	a5,-40(s0)
    80004a64:	0007c783          	lbu	a5,0(a5)
    80004a68:	873e                	mv	a4,a5
    80004a6a:	02d00793          	li	a5,45
    80004a6e:	00f70b63          	beq	a4,a5,80004a84 <atol+0x54>
/cva6/verif/sim/../tests/custom/common/syscalls.c:511 (discriminator 1)
    80004a72:	fd843783          	ld	a5,-40(s0)
    80004a76:	0007c783          	lbu	a5,0(a5)
    80004a7a:	873e                	mv	a4,a5
    80004a7c:	02b00793          	li	a5,43
    80004a80:	06f71263          	bne	a4,a5,80004ae4 <atol+0xb4>
/cva6/verif/sim/../tests/custom/common/syscalls.c:512
    sign = *str == '-';
    80004a84:	fd843783          	ld	a5,-40(s0)
    80004a88:	0007c783          	lbu	a5,0(a5)
    80004a8c:	0007871b          	sext.w	a4,a5
    80004a90:	02d00793          	li	a5,45
    80004a94:	40f707b3          	sub	a5,a4,a5
    80004a98:	0017b793          	seqz	a5,a5
    80004a9c:	0ff7f793          	andi	a5,a5,255
    80004aa0:	fef42223          	sw	a5,-28(s0)
/cva6/verif/sim/../tests/custom/common/syscalls.c:513
    str++;
    80004aa4:	fd843783          	ld	a5,-40(s0)
    80004aa8:	0785                	addi	a5,a5,1
    80004aaa:	fcf43c23          	sd	a5,-40(s0)
/cva6/verif/sim/../tests/custom/common/syscalls.c:516
  }

  while (*str) {
    80004aae:	a81d                	j	80004ae4 <atol+0xb4>
/cva6/verif/sim/../tests/custom/common/syscalls.c:517
    res *= 10;
    80004ab0:	fe843703          	ld	a4,-24(s0)
    80004ab4:	87ba                	mv	a5,a4
    80004ab6:	078a                	slli	a5,a5,0x2
    80004ab8:	97ba                	add	a5,a5,a4
    80004aba:	0786                	slli	a5,a5,0x1
    80004abc:	fef43423          	sd	a5,-24(s0)
/cva6/verif/sim/../tests/custom/common/syscalls.c:518
    res += *str++ - '0';
    80004ac0:	fd843783          	ld	a5,-40(s0)
    80004ac4:	00178713          	addi	a4,a5,1
    80004ac8:	fce43c23          	sd	a4,-40(s0)
    80004acc:	0007c783          	lbu	a5,0(a5)
    80004ad0:	2781                	sext.w	a5,a5
    80004ad2:	fd07879b          	addiw	a5,a5,-48
    80004ad6:	2781                	sext.w	a5,a5
    80004ad8:	873e                	mv	a4,a5
    80004ada:	fe843783          	ld	a5,-24(s0)
    80004ade:	97ba                	add	a5,a5,a4
    80004ae0:	fef43423          	sd	a5,-24(s0)
/cva6/verif/sim/../tests/custom/common/syscalls.c:516
  while (*str) {
    80004ae4:	fd843783          	ld	a5,-40(s0)
    80004ae8:	0007c783          	lbu	a5,0(a5)
    80004aec:	f3f1                	bnez	a5,80004ab0 <atol+0x80>
/cva6/verif/sim/../tests/custom/common/syscalls.c:521
  }

  return sign ? -res : res;
    80004aee:	fe442783          	lw	a5,-28(s0)
    80004af2:	2781                	sext.w	a5,a5
    80004af4:	c791                	beqz	a5,80004b00 <atol+0xd0>
/cva6/verif/sim/../tests/custom/common/syscalls.c:521 (discriminator 1)
    80004af6:	fe843783          	ld	a5,-24(s0)
    80004afa:	40f007b3          	neg	a5,a5
/cva6/verif/sim/../tests/custom/common/syscalls.c:521
    80004afe:	a019                	j	80004b04 <atol+0xd4>
/cva6/verif/sim/../tests/custom/common/syscalls.c:521 (discriminator 2)
    80004b00:	fe843783          	ld	a5,-24(s0)
/cva6/verif/sim/../tests/custom/common/syscalls.c:522
}
    80004b04:	853e                	mv	a0,a5
    80004b06:	7422                	ld	s0,40(sp)
    80004b08:	6145                	addi	sp,sp,48
    80004b0a:	8082                	ret
